
LSN.elf:     file format elf32-littlenios2
LSN.elf
architecture: nios2, flags 0x00000112:
EXEC_P, HAS_SYMS, D_PAGED
start address 0x008001b8

Program Header:
    LOAD off    0x00001000 vaddr 0x00800000 paddr 0x00800000 align 2**12
         filesz 0x00000020 memsz 0x00000020 flags r-x
    LOAD off    0x00001020 vaddr 0x00800020 paddr 0x00800020 align 2**12
         filesz 0x0001c35c memsz 0x0001c35c flags r-x
    LOAD off    0x0001d37c vaddr 0x0081c37c paddr 0x0081df44 align 2**12
         filesz 0x00001bc8 memsz 0x00001bc8 flags rw-
    LOAD off    0x0001fb0c vaddr 0x0081fb0c paddr 0x0081fb0c align 2**12
         filesz 0x00000000 memsz 0x00003474 flags rw-

Sections:
Idx Name          Size      VMA       LMA       File off  Algn
  0 .entry        00000020  00800000  00800000  00001000  2**5
                  CONTENTS, ALLOC, LOAD, READONLY, CODE
  1 .exceptions   00000198  00800020  00800020  00001020  2**2
                  CONTENTS, ALLOC, LOAD, READONLY, CODE
  2 .text         0001b3f0  008001b8  008001b8  000011b8  2**2
                  CONTENTS, ALLOC, LOAD, READONLY, CODE
  3 .rodata       00000dd4  0081b5a8  0081b5a8  0001c5a8  2**2
                  CONTENTS, ALLOC, LOAD, READONLY, DATA
  4 .rwdata       00001bc8  0081c37c  0081df44  0001d37c  2**2
                  CONTENTS, ALLOC, LOAD, DATA, SMALL_DATA
  5 .bss          00003474  0081fb0c  0081fb0c  0001fb0c  2**2
                  ALLOC, SMALL_DATA
  6 .comment      00000026  00000000  00000000  0001ef44  2**0
                  CONTENTS, READONLY
  7 .debug_aranges 00001218  00000000  00000000  0001ef70  2**3
                  CONTENTS, READONLY, DEBUGGING
  8 .debug_pubnames 00003764  00000000  00000000  00020188  2**0
                  CONTENTS, READONLY, DEBUGGING
  9 .debug_info   000383f6  00000000  00000000  000238ec  2**0
                  CONTENTS, READONLY, DEBUGGING
 10 .debug_abbrev 0000b2ff  00000000  00000000  0005bce2  2**0
                  CONTENTS, READONLY, DEBUGGING
 11 .debug_line   0002101f  00000000  00000000  00066fe1  2**0
                  CONTENTS, READONLY, DEBUGGING
 12 .debug_frame  00003468  00000000  00000000  00088000  2**2
                  CONTENTS, READONLY, DEBUGGING
 13 .debug_str    00003656  00000000  00000000  0008b468  2**0
                  CONTENTS, READONLY, DEBUGGING
 14 .debug_loc    0001009e  00000000  00000000  0008eabe  2**0
                  CONTENTS, READONLY, DEBUGGING
 15 .debug_alt_sim_info 00000060  00000000  00000000  0009eb5c  2**2
                  CONTENTS, READONLY, DEBUGGING
 16 .debug_ranges 00000c78  00000000  00000000  0009ebc0  2**3
                  CONTENTS, READONLY, DEBUGGING
 17 .thread_model 00000003  00000000  00000000  000a5863  2**0
                  CONTENTS, READONLY
 18 .cpu          0000000c  00000000  00000000  000a5866  2**0
                  CONTENTS, READONLY
 19 .qsys         00000001  00000000  00000000  000a5872  2**0
                  CONTENTS, READONLY
 20 .simulation_enabled 00000001  00000000  00000000  000a5873  2**0
                  CONTENTS, READONLY
 21 .stderr_dev   0000000b  00000000  00000000  000a5874  2**0
                  CONTENTS, READONLY
 22 .stdin_dev    0000000b  00000000  00000000  000a587f  2**0
                  CONTENTS, READONLY
 23 .stdout_dev   0000000b  00000000  00000000  000a588a  2**0
                  CONTENTS, READONLY
 24 .sopc_system_name 0000000b  00000000  00000000  000a5895  2**0
                  CONTENTS, READONLY
 25 .quartus_project_dir 0000003b  00000000  00000000  000a58a0  2**0
                  CONTENTS, READONLY
 26 .jdi          000057f2  00000000  00000000  000a58db  2**0
                  CONTENTS, READONLY
 27 .sopcinfo     00096040  00000000  00000000  000ab0cd  2**0
                  CONTENTS, READONLY
SYMBOL TABLE:
00800000 l    d  .entry	00000000 .entry
00800020 l    d  .exceptions	00000000 .exceptions
008001b8 l    d  .text	00000000 .text
0081b5a8 l    d  .rodata	00000000 .rodata
0081c37c l    d  .rwdata	00000000 .rwdata
0081fb0c l    d  .bss	00000000 .bss
00000000 l    d  .comment	00000000 .comment
00000000 l    d  .debug_aranges	00000000 .debug_aranges
00000000 l    d  .debug_pubnames	00000000 .debug_pubnames
00000000 l    d  .debug_info	00000000 .debug_info
00000000 l    d  .debug_abbrev	00000000 .debug_abbrev
00000000 l    d  .debug_line	00000000 .debug_line
00000000 l    d  .debug_frame	00000000 .debug_frame
00000000 l    d  .debug_str	00000000 .debug_str
00000000 l    d  .debug_loc	00000000 .debug_loc
00000000 l    d  .debug_alt_sim_info	00000000 .debug_alt_sim_info
00000000 l    d  .debug_ranges	00000000 .debug_ranges
00800200 l       .text	00000000 alt_after_alt_main
00000000 l    df *ABS*	00000000 alt_irq_handler.c
00000000 l    df *ABS*	00000000 audio.c
00800c54 l     F .text	00000144 playSoundISR
0081fb18 l     O .bss	00000004 audioBuffer
0081fb1c l     O .bss	00000004 audioVolumeBuffer
00000000 l    df *ABS*	00000000 bmp.c
00000000 l    df *ABS*	00000000 bullet.c
00000000 l    df *ABS*	00000000 collision.c
00000000 l    df *ABS*	00000000 displacement.c
0081fb68 l     O .bss	00000008 right
0081fb70 l     O .bss	00000008 left
0081fb78 l     O .bss	00000008 up
0081fb80 l     O .bss	00000008 down
00000000 l    df *ABS*	00000000 input.c
0081fb88 l     O .bss	00000002 edgeDetect3.3806
0081fb8a l     O .bss	00000002 edgeDetect2.3805
0081fb8c l     O .bss	00000002 edgeDetect1.3804
0081fb8e l     O .bss	00000002 edgeDetect0.3803
0081fb90 l     O .bss	00000001 keyInput.3802
0081fb92 l     O .bss	00000002 scoresShown.3853
0081def8 l     O .rwdata	00000001 prevSwInput.3852
0081fb94 l     O .bss	00000002 edgeDetect.3851
0081fb96 l     O .bss	00000001 SWInput.3850
0081fb98 l     O .bss	00000002 edgeDetect.3886
0081fb9a l     O .bss	00000001 atariFire.3885
0081fb9b l     O .bss	00000001 atariDown.3884
0081fb9c l     O .bss	00000001 atariUp.3883
0081fb9d l     O .bss	00000001 atariButtons.3882
00000000 l    df *ABS*	00000000 lcd.c
00000000 l    df *ABS*	00000000 main.c
00000000 l    df *ABS*	00000000 player.c
00000000 l    df *ABS*	00000000 score.c
00000000 l    df *ABS*	00000000 sd_card.c
00000000 l    df *ABS*	00000000 shark.c
00000000 l    df *ABS*	00000000 splash.c
00000000 l    df *ABS*	00000000 timer.c
00000000 l    df *ABS*	00000000 vga.c
00000000 l    df *ABS*	00000000 w_pow.c
00000000 l    df *ABS*	00000000 e_pow.c
0081bf14 l     O .rodata	00000010 bp
0081bf24 l     O .rodata	00000010 dp_l
0081bf34 l     O .rodata	00000010 dp_h
00000000 l    df *ABS*	00000000 e_sqrt.c
00000000 l    df *ABS*	00000000 s_fabs.c
00000000 l    df *ABS*	00000000 s_finite.c
00000000 l    df *ABS*	00000000 s_isnand.c
00000000 l    df *ABS*	00000000 s_lib_ver.c
00000000 l    df *ABS*	00000000 s_matherr.c
00000000 l    df *ABS*	00000000 s_nan.c
00000000 l    df *ABS*	00000000 s_rint.c
0081bf44 l     O .rodata	00000010 TWO52
00000000 l    df *ABS*	00000000 s_scalbn.c
00000000 l    df *ABS*	00000000 s_copysign.c
00000000 l    df *ABS*	00000000 fp-bit.c
00000000 l    df *ABS*	00000000 fp-bit.c
00000000 l    df *ABS*	00000000 fp-bit.c
00000000 l    df *ABS*	00000000 fp-bit.c
00000000 l    df *ABS*	00000000 dp-bit.c
0080751c l     F .text	00000410 _fpadd_parts
00000000 l    df *ABS*	00000000 dp-bit.c
00000000 l    df *ABS*	00000000 dp-bit.c
00000000 l    df *ABS*	00000000 dp-bit.c
00000000 l    df *ABS*	00000000 dp-bit.c
00000000 l    df *ABS*	00000000 dp-bit.c
00000000 l    df *ABS*	00000000 dp-bit.c
00000000 l    df *ABS*	00000000 dp-bit.c
00000000 l    df *ABS*	00000000 dp-bit.c
00000000 l    df *ABS*	00000000 dp-bit.c
00000000 l    df *ABS*	00000000 dp-bit.c
00000000 l    df *ABS*	00000000 dp-bit.c
00000000 l    df *ABS*	00000000 lib2-divmod.c
008084ec l     F .text	0000007c udivmodsi4
00000000 l    df *ABS*	00000000 libgcc2.c
00000000 l    df *ABS*	00000000 libgcc2.c
00000000 l    df *ABS*	00000000 fp-bit.c
00000000 l    df *ABS*	00000000 fp-bit.c
00000000 l    df *ABS*	00000000 dp-bit.c
00000000 l    df *ABS*	00000000 dp-bit.c
00000000 l    df *ABS*	00000000 dp-bit.c
00000000 l    df *ABS*	00000000 libgcc2.c
00000000 l    df *ABS*	00000000 errno.c
00000000 l    df *ABS*	00000000 impure.c
0081c37c l     O .rwdata	00000400 impure_data
00000000 l    df *ABS*	00000000 malloc.c
00000000 l    df *ABS*	00000000 mallocr.c
00000000 l    df *ABS*	00000000 printf.c
00000000 l    df *ABS*	00000000 puts.c
00000000 l    df *ABS*	00000000 rand.c
00000000 l    df *ABS*	00000000 sbrkr.c
00000000 l    df *ABS*	00000000 strlen.c
00000000 l    df *ABS*	00000000 time.c
00000000 l    df *ABS*	00000000 vfprintf.c
00809904 l     F .text	00000058 __sprint_r
0081c0ee l     O .rodata	00000010 blanks.3452
0081c0de l     O .rodata	00000010 zeroes.3453
00000000 l    df *ABS*	00000000 wsetup.c
00000000 l    df *ABS*	00000000 dtoa.c
0080b968 l     F .text	00000218 quorem
00000000 l    df *ABS*	00000000 fflush.c
00000000 l    df *ABS*	00000000 findfp.c
0080d364 l     F .text	00000058 std
0080d470 l     F .text	00000008 __fp_lock
0080d478 l     F .text	00000008 __fp_unlock
00000000 l    df *ABS*	00000000 mallocr.c
00000000 l    df *ABS*	00000000 fvwrite.c
00000000 l    df *ABS*	00000000 fwalk.c
00000000 l    df *ABS*	00000000 gettimeofdayr.c
00000000 l    df *ABS*	00000000 int_errno.c
00000000 l    df *ABS*	00000000 locale.c
0081df18 l     O .rwdata	00000004 charset
0081c120 l     O .rodata	00000030 lconv
00000000 l    df *ABS*	00000000 makebuf.c
00000000 l    df *ABS*	00000000 memchr.c
00000000 l    df *ABS*	00000000 memcpy.c
00000000 l    df *ABS*	00000000 memmove.c
00000000 l    df *ABS*	00000000 memset.c
00000000 l    df *ABS*	00000000 mprec.c
0081c268 l     O .rodata	0000000c p05.2458
00000000 l    df *ABS*	00000000 mallocr.c
00000000 l    df *ABS*	00000000 s_isinfd.c
00000000 l    df *ABS*	00000000 stdio.c
00000000 l    df *ABS*	00000000 strcmp.c
00000000 l    df *ABS*	00000000 writer.c
00000000 l    df *ABS*	00000000 mallocr.c
00000000 l    df *ABS*	00000000 closer.c
00000000 l    df *ABS*	00000000 fclose.c
00000000 l    df *ABS*	00000000 fstatr.c
00000000 l    df *ABS*	00000000 isattyr.c
00000000 l    df *ABS*	00000000 lseekr.c
00000000 l    df *ABS*	00000000 readr.c
00000000 l    df *ABS*	00000000 libgcc2.c
00000000 l    df *ABS*	00000000 libgcc2.c
00000000 l    df *ABS*	00000000 dp-bit.c
00000000 l    df *ABS*	00000000 dp-bit.c
00000000 l    df *ABS*	00000000 alt_close.c
008111b0 l     F .text	00000060 alt_get_errno
00000000 l    df *ABS*	00000000 alt_dev.c
00811210 l     F .text	0000002c alt_dev_null_write
00000000 l    df *ABS*	00000000 alt_errno.c
00000000 l    df *ABS*	00000000 alt_fstat.c
00811310 l     F .text	00000060 alt_get_errno
00000000 l    df *ABS*	00000000 alt_gettod.c
00000000 l    df *ABS*	00000000 alt_irq_register.c
00000000 l    df *ABS*	00000000 alt_irq_vars.c
00000000 l    df *ABS*	00000000 alt_isatty.c
0081180c l     F .text	00000060 alt_get_errno
00000000 l    df *ABS*	00000000 alt_load.c
008118ec l     F .text	0000006c alt_load_section
00000000 l    df *ABS*	00000000 alt_lseek.c
00811a48 l     F .text	00000060 alt_get_errno
00000000 l    df *ABS*	00000000 alt_main.c
00000000 l    df *ABS*	00000000 alt_malloc_lock.c
00000000 l    df *ABS*	00000000 alt_read.c
00811c74 l     F .text	00000060 alt_get_errno
00000000 l    df *ABS*	00000000 alt_release_fd.c
00000000 l    df *ABS*	00000000 alt_sbrk.c
0081df38 l     O .rwdata	00000004 heap_end
00000000 l    df *ABS*	00000000 alt_tick.c
00000000 l    df *ABS*	00000000 alt_usleep.c
00000000 l    df *ABS*	00000000 alt_write.c
008120e4 l     F .text	00000060 alt_get_errno
00000000 l    df *ABS*	00000000 alt_sys_init.c
0081cd38 l     O .rwdata	00001060 jtag_uart_0
0081dd98 l     O .rwdata	00000030 audio_and_video_config_0
0081ddc8 l     O .rwdata	00000030 audio_0
0081ddf8 l     O .rwdata	0000002c character_lcd_0
0081de24 l     O .rwdata	00000048 char_drawer
0081de6c l     O .rwdata	00000054 pixel_buffer_dma
0081dec0 l     O .rwdata	0000002c Altera_UP_SD_Card_Avalon_Interface_0
008124ec l     F .text	00000038 alt_dev_reg
00000000 l    df *ABS*	00000000 altera_avalon_jtag_uart_fd.c
00000000 l    df *ABS*	00000000 altera_avalon_jtag_uart_init.c
00812724 l     F .text	0000022c altera_avalon_jtag_uart_irq
00812950 l     F .text	000000b0 altera_avalon_jtag_uart_timeout
00000000 l    df *ABS*	00000000 altera_avalon_jtag_uart_ioctl.c
00000000 l    df *ABS*	00000000 altera_avalon_jtag_uart_read.c
00000000 l    df *ABS*	00000000 altera_avalon_jtag_uart_write.c
00000000 l    df *ABS*	00000000 altera_avalon_timer_sc.c
00812fcc l     F .text	00000074 alt_avalon_timer_sc_irq
00000000 l    df *ABS*	00000000 altera_avalon_timer_ts.c
00000000 l    df *ABS*	00000000 altera_avalon_timer_vars.c
00000000 l    df *ABS*	00000000 altera_up_avalon_audio.c
00000000 l    df *ABS*	00000000 altera_up_avalon_audio_and_video_config.c
00000000 l    df *ABS*	00000000 altera_up_avalon_character_lcd.c
00000000 l    df *ABS*	00000000 altera_up_avalon_video_character_buffer_with_dma.c
00000000 l    df *ABS*	00000000 altera_up_avalon_video_pixel_buffer_dma.c
00000000 l    df *ABS*	00000000 altera_up_sd_card_avalon_interface.c
00000000 l    df *ABS*	00000000 alt_alarm_start.c
00000000 l    df *ABS*	00000000 alt_busy_sleep.c
00000000 l    df *ABS*	00000000 alt_dcache_flush_all.c
00000000 l    df *ABS*	00000000 alt_dev_llist_insert.c
0081a8bc l     F .text	00000060 alt_get_errno
00000000 l    df *ABS*	00000000 alt_do_ctors.c
00000000 l    df *ABS*	00000000 alt_do_dtors.c
00000000 l    df *ABS*	00000000 alt_find_dev.c
00000000 l    df *ABS*	00000000 alt_icache_flush_all.c
00000000 l    df *ABS*	00000000 alt_io_redirect.c
0081aaa8 l     F .text	000000c4 alt_open_fd
00000000 l    df *ABS*	00000000 alt_open.c
0081abe4 l     F .text	000000dc alt_file_locked
0081ae48 l     F .text	00000060 alt_get_errno
00000000 l    df *ABS*	00000000 altera_nios2_qsys_irq.c
00000000 l    df *ABS*	00000000 alt_find_file.c
00000000 l    df *ABS*	00000000 alt_get_fd.c
00000000 l    df *ABS*	00000000 alt_icache_flush.c
00000000 l    df *ABS*	00000000 atexit.c
00000000 l    df *ABS*	00000000 exit.c
00000000 l    df *ABS*	00000000 memcmp.c
00000000 l    df *ABS*	00000000 __atexit.c
00000000 l    df *ABS*	00000000 __call_atexit.c
0081b324 l     F .text	00000004 register_fini
00000000 l    df *ABS*	00000000 alt_exit.c
0081b4d8 l     F .text	00000040 alt_sim_halt
00800ed0 g     F .text	000001e8 changeBufferVolume
00813b90 g     F .text	00000038 alt_up_av_config_reset
0081fc0c g     O .bss	00000004 aux_status_register
0081fba8 g     O .bss	00000004 sharkList
0080ea54 g     F .text	00000094 _mprec_log10
00814034 g     F .text	00000064 alt_up_av_config_read_D5M_cfg_register
008004c4 g     F .text	000000cc loadPlayerDeath
0080eb40 g     F .text	00000088 __any_on
008101ac g     F .text	00000070 _isatty_r
0081c240 g     O .rodata	00000028 __mprec_tinytens
00813c00 g     F .text	00000030 alt_up_av_config_disable_interrupt
00811aa8 g     F .text	0000006c alt_main
00815664 g     F .text	000003d0 alt_up_pixel_buffer_dma_draw_vline
0080967c g     F .text	000000a0 _puts_r
00822cf0 g     O .bss	00000100 alt_irq
00806e2c g     F .text	00000018 fabs
0081021c g     F .text	00000078 _lseek_r
0081df44 g       *ABS*	00000000 __flash_rwdata_start
00814240 g     F .text	00000034 alt_up_character_lcd_send_cmd
00804ff4 g     F .text	00000048 setHardwareTimerPeriod
0080803c g     F .text	00000088 __eqdf2
008017c4 g     F .text	000000bc initBullets
00816314 g     F .text	000001b0 Check_for_Master_Boot_Record
0080e080 g     F .text	00000074 _gettimeofday_r
008134a8 g     F .text	00000070 alt_up_audio_read_fifo_avail
00813cd0 g     F .text	000000ac alt_up_av_config_write_audio_cfg_register
00822f80 g       *ABS*	00000000 __alt_heap_start
00803d78 g     F .text	00000024 getCurrentPlayerScore
00802b80 g     F .text	00000070 handleAtariInput
0081defc g     O .rwdata	00000004 scoreFileName
0081a1cc g     F .text	000001cc alt_up_sd_card_fclose
00809604 g     F .text	00000044 printf
00803dec g     F .text	00000238 drawScore
00813518 g     F .text	00000070 alt_up_audio_record_r
0080fc78 g     F .text	00000068 __sseek
0080d3cc g     F .text	000000a4 __sinit
00814888 g     F .text	00000114 alt_up_char_buffer_string
0081deec g     O .rwdata	00000004 CONFIG_NAME
0080e118 g     F .text	00000084 _setlocale_r
0080d4cc g     F .text	00000068 __sfmoreglue
00811b34 g     F .text	00000020 __malloc_unlock
0081fbb4 g     O .bss	00000004 sharkArrayCursor
008072bc g     F .text	00000174 __divsf3
0081fc30 g     O .bss	00000004 current_sector_modified
008147b8 g     F .text	000000d0 alt_up_char_buffer_draw
00813420 g     F .text	00000088 alt_up_audio_reset_audio_core
0081a494 g     F .text	00000090 Read_Sector_Data_Attempt_CRC
0081fc00 g     O .bss	00000004 altera_avalon_timer_ts_freq
00800bcc g     F .text	00000044 playSharkDeath
0080e4d0 g     F .text	000000e0 memmove
00820e88 g     O .bss	00000400 verticalDisplacementFunctionDown
0080315c g     F .text	00000028 killPlayer
0080d4bc g     F .text	00000010 _cleanup
0080ebc8 g     F .text	000000bc _Balloc
008047d0 g     F .text	00000124 moveShark
00818d90 g     F .text	000000c8 alt_up_sd_card_is_Present
0081602c g     F .text	00000050 Save_Modified_Sector
008015c0 g     F .text	00000038 freeSplash
00803184 g     F .text	00000064 initScoreBoard
00814a38 g     F .text	000001a0 alt_up_pixel_buffer_dma_draw
0080300c g     F .text	0000008c moveDownPlayer
0080814c g     F .text	00000088 __gtdf2
00808e8c g     F .text	00000010 __errno
008141c4 g     F .text	0000007c get_DDRAM_addr
0080430c g     F .text	00000040 openFile
00800858 g     F .text	000001a0 audioTest
008149f8 g     F .text	00000040 alt_up_pixel_buffer_dma_open_dev
008052e4 g     F .text	00000060 drawBox
00800000 g     F .entry	0000001c __reset
0081fc28 g     O .bss	00000004 fat_partition_size_in_512_byte_sectors
00801aac g     F .text	00000084 drawAllBullets
00800020 g       *ABS*	00000000 __flash_exceptions_start
00810138 g     F .text	00000074 _fstat_r
0081fbc4 g     O .bss	00000004 errno
008084b4 g     F .text	00000038 __make_dp
00804d38 g     F .text	0000002c clearSplashScreen
008133e4 g     F .text	0000003c alt_up_audio_write_interrupt_pending
0081fb3c g     O .bss	00000004 pixel_buffer_addr1
0081fb40 g     O .bss	00000004 char_buffer
0081fbec g     O .bss	00000004 alt_argv
00801dbc g     F .text	000000fc moveBulletLeft
00825eec g       *ABS*	00000000 _gp
00811f94 g     F .text	00000030 usleep
00819350 g     F .text	000003a8 alt_up_sd_card_fopen
0081fe78 g     O .bss	00000010 player
00818ecc g     F .text	000000d4 alt_up_sd_card_find_first
0081fc1c g     O .bss	00000004 command_argument_register
00814bd8 g     F .text	00000058 alt_up_pixel_buffer_dma_change_back_buffer_address
00803a70 g     F .text	000002d0 obtainUserInitials
0081fc60 g     O .bss	000001e8 tone
00803290 g     F .text	00000354 readHighScoreBoardFromSD
0081cbb8 g     O .rwdata	00000180 alt_fd_list
0081fbb0 g     O .bss	00000004 sharkCount
0081fb60 g     O .bss	00000004 sharkLaserColor
008185c0 g     F .text	0000012c find_first_empty_record_in_root_directory
0081a9e4 g     F .text	00000094 alt_find_dev
0080e430 g     F .text	000000a0 memcpy
008143d8 g     F .text	0000004c alt_up_character_lcd_write_fd
0081499c g     F .text	0000005c alt_up_char_buffer_clear
0080d4b0 g     F .text	0000000c _cleanup_r
008082e4 g     F .text	000000f8 __floatsidf
0081ab6c g     F .text	00000078 alt_io_redirect
008081d4 g     F .text	00000088 __ltdf2
008026b0 g     F .text	00000040 makeUp
0081b5a8 g       *ABS*	00000000 __DTOR_END__
0080971c g     F .text	00000014 puts
008021c8 g     F .text	0000009c doPlayerBulletCollision
00801eb8 g     F .text	000000a0 findSharkIfHit
008181d0 g     F .text	000001a4 find_first_empty_cluster
0080e9a4 g     F .text	000000b0 __ratio
00818ccc g     F .text	000000c4 alt_up_sd_card_open_dev
0081397c g     F .text	00000060 alt_up_audio_read_fifo_head
00814c88 g     F .text	00000034 alt_up_pixel_buffer_dma_check_swap_buffers_status
00812b68 g     F .text	00000224 altera_avalon_jtag_uart_read
00801574 g     F .text	0000004c freeBmps
00808eb0 g     F .text	00000014 malloc
00809648 g     F .text	00000034 _printf_r
00808628 g     F .text	00000008 __udivsi3
0081174c g     F .text	000000c0 isatty
0081c150 g     O .rodata	000000c8 __mprec_tens
00815314 g     F .text	00000350 alt_up_pixel_buffer_dma_draw_hline
0080e0f4 g     F .text	00000008 __locale_charset
0081fbd4 g     O .bss	00000008 alt_timezone
0081b0a0 g     F .text	00000090 alt_icache_flush
0081fbb8 g     O .bss	00000004 __malloc_top_pad
00813b04 g     F .text	0000008c alt_up_av_config_read_data
0081df14 g     O .rwdata	00000004 __mb_cur_max
0080e0fc g     F .text	0000000c _localeconv_r
0080f2c0 g     F .text	0000003c __i2b
0080da64 g     F .text	0000049c __sfvwrite_r
008174ac g     F .text	000000c0 get_dir_divider_location
00804d64 g     F .text	00000290 timer_test
00802f3c g     F .text	00000044 erasePlayer
008097c4 g     F .text	00000070 _sbrk_r
00815af8 g     F .text	000000d0 helper_plot_pixel
00805070 g     F .text	00000028 hasHardwareTimerExpired
0081714c g     F .text	000000d0 filename_to_upper_case
0081fb64 g     O .bss	00000004 playerLaserColor
008196f8 g     F .text	00000090 alt_up_sd_card_set_attributes
008164c4 g     F .text	00000284 Read_File_Record_At_Offset
00802770 g     F .text	00000040 makeDownLeft
00810294 g     F .text	00000078 _read_r
0081fb58 g     O .bss	00000004 playerBulletList
0081cb84 g     O .rwdata	0000000c __lc_ctype
0081df2c g     O .rwdata	00000004 alt_max_fd
008139dc g     F .text	00000060 alt_up_audio_write_fifo_head
00808c8c g     F .text	00000138 __unpack_d
00817d6c g     F .text	00000464 find_file_in_directory
00810014 g     F .text	00000110 _fclose_r
0081fe48 g     O .bss	0000000c sharkDeath
0080d330 g     F .text	00000034 fflush
0081fbbc g     O .bss	00000004 __malloc_max_sbrked_mem
008043b0 g     F .text	00000094 readWord
0081158c g     F .text	000001c0 alt_irq_register
008035e4 g     F .text	0000048c updateHighScoreBoard
008074c8 g     F .text	00000054 __extendsfdf2
00818e58 g     F .text	00000074 alt_up_sd_card_is_FAT16
008079ac g     F .text	00000074 __adddf3
0080e884 g     F .text	00000120 __b2d
00814cbc g     F .text	00000164 alt_up_pixel_buffer_dma_clear_screen
008108e8 g     F .text	000005b0 __umoddi3
00811958 g     F .text	000000f0 lseek
0081df00 g     O .rwdata	00000004 __fdlib_version
0081df08 g     O .rwdata	00000004 _global_impure_ptr
00817858 g     F .text	00000514 get_home_directory_cluster_for_file
0080f63c g     F .text	000005f4 _realloc_r
00822f80 g       *ABS*	00000000 __bss_end
00814e20 g     F .text	000004f4 alt_up_pixel_buffer_dma_draw_box
00811e88 g     F .text	0000010c alt_tick
00804bd0 g     F .text	0000011c cleanupDeadSharks
0081030c g     F .text	000005dc __udivdi3
0081c218 g     O .rodata	00000028 __mprec_bigtens
0080f51c g     F .text	00000120 __s2b
0081fe88 g     O .bss	00001000 bulletArray
00810f20 g     F .text	00000194 __floatunsidf
0080e7a4 g     F .text	00000060 __mcmp
0081fc34 g     O .bss	00000004 current_sector_index
00813230 g     F .text	00000040 alt_up_audio_open_dev
008024e4 g     F .text	000000bc setupArcDisplacementFunction
00802aac g     F .text	000000d4 handleSwitchInput
0080d498 g     F .text	00000018 __fp_lock_all
00804518 g     F .text	000000b8 getWavFileLength
008003f8 g     F .text	000000cc loadLaser
0081366c g     F .text	00000070 alt_up_audio_play_r
00811df0 g     F .text	00000098 alt_alarm_stop
00816230 g     F .text	000000e4 mark_cluster
0081fbe4 g     O .bss	00000004 alt_irq_active
0081def0 g     O .rwdata	00000004 AUDIO_NAME
008000ec g     F .exceptions	000000cc alt_irq_handler
0081cb90 g     O .rwdata	00000028 alt_dev_null
0081fba0 g     O .bss	00000004 char_lcd_dev
008186ec g     F .text	000001b8 convert_filename_to_name_extension
00804b08 g     F .text	000000c8 killShark
00806ea8 g     F .text	00000210 rint
008088b0 g     F .text	000000c8 __unpack_f
008048f4 g     F .text	00000050 moveAllSharks
008146c0 g     F .text	00000034 alt_up_character_lcd_cursor_blink_on
0081fb5c g     O .bss	00000004 sharkBulletList
0081a7c4 g     F .text	00000044 alt_dcache_flush_all
0080e670 g     F .text	00000070 __hi0bits
0081fc08 g     O .bss	00000004 is_sd_card_formated_as_FAT16
00815a34 g     F .text	000000c4 alt_up_pixel_buffer_dma_draw_rectangle
008083dc g     F .text	000000d8 __fixdfsi
00818374 g     F .text	0000024c find_first_empty_record_in_a_subdirectory
0081df44 g       *ABS*	00000000 __ram_rwdata_end
00802954 g     F .text	00000158 handleKeyInput
0081df24 g     O .rwdata	00000008 alt_dev_list
00811fc4 g     F .text	00000120 write
0081fc2c g     O .bss	00000004 device_pointer
00813208 g     F .text	00000028 alt_timestamp_freq
00815bc8 g     F .text	0000039c alt_up_pixel_buffer_dma_draw_line
008042ac g     F .text	00000060 openSdCard
0081fe54 g     O .bss	0000000c laser
0081c37c g       *ABS*	00000000 __ram_rodata_end
0081fb14 g     O .bss	00000004 DEBUG
0081123c g     F .text	000000d4 fstat
0080825c g     F .text	00000088 __ledf2
0080f3fc g     F .text	00000120 __pow5mult
0081fbc8 g     O .bss	00000004 __nlocale_changed
00808630 g     F .text	00000008 __umodsi3
00804944 g     F .text	00000050 drawAllSharks
00822f80 g       *ABS*	00000000 end
00808750 g     F .text	00000160 __pack_f
008146f4 g     F .text	00000084 alt_up_char_buffer_init
0080503c g     F .text	00000034 isHardwareTimerRunning
0081266c g     F .text	000000b8 altera_avalon_jtag_uart_init
0081b5a4 g       *ABS*	00000000 __CTOR_LIST__
01000000 g       *ABS*	00000000 __alt_stack_pointer
00813040 g     F .text	00000088 alt_avalon_timer_sc_init
008086d0 g     F .text	00000080 __clzsi2
0081fb20 g     O .bss	00000002 loaded
00812d8c g     F .text	00000240 altera_avalon_jtag_uart_write
00804718 g     F .text	0000005c drawShark
0080d3bc g     F .text	00000004 __sfp_lock_acquire
0080e34c g     F .text	000000e4 memchr
008142e8 g     F .text	00000078 alt_up_character_lcd_write
0080995c g     F .text	00001eac ___vfprintf_internal_r
008052a8 g     F .text	0000003c printLine
0080d750 g     F .text	00000314 _free_r
008050c4 g     F .text	000000a8 initVga
00802264 g     F .text	0000008c setupDisplacement
0081b328 g     F .text	000001b0 __call_exitprocs
0081fbcc g     O .bss	00000004 __mlocale_changed
0081df10 g     O .rwdata	00000004 __malloc_sbrk_base
008001b8 g     F .text	0000004c _start
00802bf0 g     F .text	0000005c startGame
0081fbf4 g     O .bss	00000004 _alt_tick_rate
0080974c g     F .text	00000078 rand
00813850 g     F .text	0000012c alt_up_audio_write_fifo
00801764 g     F .text	00000060 eraseBmp
0080ef8c g     F .text	0000014c __lshift
00813aa0 g     F .text	00000064 alt_up_av_config_write_data
0081fbf8 g     O .bss	00000004 _alt_nticks
00811b54 g     F .text	00000120 read
00812178 g     F .text	00000374 alt_sys_init
0081454c g     F .text	000000b0 alt_up_character_lcd_shift_display
00807430 g     F .text	00000098 __floatsisf
00821288 g     O .bss	00000400 verticalDisplacementFunctionUp
0081374c g     F .text	00000104 alt_up_audio_read_fifo
0081fbac g     O .bss	00000004 deadSharkList
00804684 g     F .text	00000094 getFreeShark
0081b1f0 g     F .text	00000134 __register_exitproc
00814160 g     F .text	00000064 alt_up_av_config_write_LTM_cfg_register
00813358 g     F .text	00000050 alt_up_audio_disable_write_interrupt
00802128 g     F .text	000000a0 doSharkBulletCollision
0081fb44 g     O .bss	00000004 pixel_buffer_addr2
0081fb48 g     O .bss	00000004 sharkBmp
00800b2c g     F .text	0000005c playLaser
0080f0d8 g     F .text	000001e8 __multiply
008145fc g     F .text	00000090 alt_up_character_lcd_erase_pos
00805864 g     F .text	00001300 __ieee754_pow
00812a00 g     F .text	00000074 altera_avalon_jtag_uart_close
008053dc g     F .text	00000488 pow
0081c37c g       *ABS*	00000000 __ram_rwdata_start
0081b5a8 g       *ABS*	00000000 __ram_rodata_start
0081fc38 g     O .bss	00000028 __malloc_current_mallinfo
0080ec84 g     F .text	0000017c __d2b
0081fc04 g     O .bss	00000004 initialized
008019e4 g     F .text	000000c8 moveAllBullets
00812524 g     F .text	00000058 altera_avalon_jtag_uart_read_fd
0081afe8 g     F .text	000000b8 alt_get_fd
00822788 g     O .bss	00000014 search_data
0081a678 g     F .text	0000014c alt_busy_sleep
00808dc4 g     F .text	000000c8 __fpcmp_parts_d
0081fe60 g     O .bss	0000000c theme
0080ffa4 g     F .text	00000070 _close_r
0081fb24 g     O .bss	00000004 audioFileWordLength
0081330c g     F .text	0000004c alt_up_audio_enable_write_interrupt
00800b88 g     F .text	00000044 playPlayerDeath
0081b17c g     F .text	00000074 memcmp
008125d4 g     F .text	00000048 altera_avalon_jtag_uart_close_fd
00822f80 g       *ABS*	00000000 __alt_stack_base
0081261c g     F .text	00000050 altera_avalon_jtag_uart_ioctl_fd
00802040 g     F .text	000000e8 isBulletCollidingWithPlayer
0080b82c g     F .text	0000013c __swsetup_r
00802ca8 g     F .text	000000bc init
0081fb4c g     O .bss	00000004 splashBmp
00807de4 g     F .text	00000258 __divdf3
00804444 g     F .text	000000d4 readDWord
008132bc g     F .text	00000050 alt_up_audio_disable_read_interrupt
0080d534 g     F .text	000000f0 __sfp
0082279c g     O .bss	00000054 boot_sector_data
0080eae8 g     F .text	00000058 __copybits
0081c77c g     O .rwdata	00000408 __malloc_av_
0080d3c8 g     F .text	00000004 __sinit_lock_release
00807a20 g     F .text	000003c4 __muldf3
0080fd5c g     F .text	00000060 __sread
00804994 g     F .text	00000050 eraseAllSharks
0081bf54 g     O .rodata	00000010 __thenan_sf
0081aec8 g     F .text	00000120 alt_find_file
0081a808 g     F .text	000000b4 alt_dev_llist_insert
00811b14 g     F .text	00000020 __malloc_lock
00811d34 g     F .text	000000bc sbrk
00801f58 g     F .text	000000e8 isBulletCollidingWithShark
0080d134 g     F .text	000001fc _fflush_r
0080fef0 g     F .text	000000b4 _calloc_r
008007bc g     F .text	0000009c playAudio
00811370 g     F .text	0000021c gettimeofday
0081fba4 g     O .bss	00000004 gameScores
00805098 g     F .text	0000002c startHardwareTimer
0081fb0c g       *ABS*	00000000 __bss_start
0080e5b0 g     F .text	00000098 memset
00802d64 g     F .text	00000138 main
008135f8 g     F .text	00000074 alt_up_audio_write_fifo_space
0081fbf0 g     O .bss	00000004 alt_envp
0081fbc0 g     O .bss	00000004 __malloc_max_total_mem
00814c30 g     F .text	00000058 alt_up_pixel_buffer_dma_swap_buffers
00814778 g     F .text	00000040 alt_up_char_buffer_open_dev
0081257c g     F .text	00000058 altera_avalon_jtag_uart_write_fd
00809730 g     F .text	0000001c srand
008026f0 g     F .text	00000040 makeDown
00819788 g     F .text	0000008c alt_up_sd_card_get_attributes
00815f64 g     F .text	000000c8 Write_Sector_Data
00819ba8 g     F .text	00000624 alt_up_sd_card_write
0081449c g     F .text	000000b0 alt_up_character_lcd_shift_cursor
0080fc70 g     F .text	00000008 __sclose
00806e90 g     F .text	00000008 matherr
01000000 g       *ABS*	00000000 __alt_heap_limit
00810124 g     F .text	00000014 fclose
00802630 g     F .text	00000040 makeRight
008130c8 g     F .text	000000a4 alt_timestamp_start
00822df0 g     O .bss	00000190 _atexit0
0080bb80 g     F .text	000015b4 _dtoa_r
00808ec4 g     F .text	00000740 _malloc_r
008098a8 g     F .text	0000005c time
0081df30 g     O .rwdata	00000004 alt_errno
00803d9c g     F .text	0000002c setCurrentPlayerLives
0080dfc8 g     F .text	000000b8 _fwalk
00801b30 g     F .text	00000084 eraseAllBullets
00801bb4 g     F .text	00000088 drawBullet
00808568 g     F .text	00000060 __divsi3
0081bf64 g     O .rodata	00000014 __thenan_df
008142a8 g     F .text	00000040 alt_up_character_lcd_open_dev
0081fb28 g     O .bss	00000004 sdDev
0080d624 g     F .text	0000012c _malloc_trim_r
0081b5a8 g       *ABS*	00000000 __CTOR_END__
008031e8 g     F .text	000000a8 defaultHighScoreBoard
00806e44 g     F .text	0000001c finite
0081fb0c g     O .bss	00000004 audio
0081fc10 g     O .bss	00000004 status_register
00814274 g     F .text	00000034 alt_up_character_lcd_init
008009f8 g     F .text	00000134 readWavFile
0080fdbc g     F .text	000000bc strcmp
00804774 g     F .text	0000005c eraseShark
0081fc18 g     O .bss	00000004 command_register
0081b5a8 g       *ABS*	00000000 __flash_rodata_start
0081b5a8 g       *ABS*	00000000 __DTOR_LIST__
00802830 g     F .text	00000124 setToRandomDisplacement
00804050 g     F .text	0000025c drawInGameInfo
00807298 g     F .text	00000024 copysign
008080c4 g     F .text	00000088 __nedf2
00801c3c g     F .text	00000084 eraseBullet
00813a3c g     F .text	00000064 alt_up_av_config_open_dev
00812144 g     F .text	00000034 alt_irq_init
008051e0 g     F .text	000000c8 drawLine
00811cd4 g     F .text	00000060 alt_release_fd
0080065c g     F .text	000000d0 loadTheme
00816178 g     F .text	000000b8 get_cluster_flag
0081468c g     F .text	00000034 alt_up_character_lcd_cursor_off
0081bf78 g     O .rodata	00000100 __clz_tab
00816748 g     F .text	000002b8 Write_File_Record_At_Offset
0081fbd0 g     O .bss	00000004 _PathLocale
0081fb2c g     O .bss	00000004 somethingForIrq
0081fb50 g     O .bss	00000004 pixel_buffer
0081b130 g     F .text	00000014 atexit
0080fe78 g     F .text	00000078 _write_r
00813c98 g     F .text	00000038 alt_up_av_config_read_ready
00804620 g     F .text	00000064 initSharks
0080e19c g     F .text	0000001c setlocale
00816a00 g     F .text	00000648 Check_for_DOS_FAT
008188a4 g     F .text	000002d4 create_file
008023f4 g     F .text	000000f0 setupCircularDisplacementFunction
0081df04 g     O .rwdata	00000004 _impure_ptr
0081fc14 g     O .bss	00000004 CSD_register_w0
00801880 g     F .text	00000164 createBullet
0081fbe8 g     O .bss	00000004 alt_argc
008070b8 g     F .text	000001e0 scalbn
0081fbfc g     O .bss	00000004 altera_avalon_timer_ts_base
0081a980 g     F .text	00000064 _do_dtors
00821688 g     O .bss	00000400 circularDisplacementFunction
00800000 g       *ABS*	00000000 __alt_mem_sdram_0
00800020 g       .exceptions	00000000 alt_irq_entry
0080e804 g     F .text	00000080 __ulp
0080fc30 g     F .text	00000040 __isinfd
0080d480 g     F .text	00000018 __fp_unlock_all
008025a0 g     F .text	00000090 setupNoDisplcaementFunction
00804024 g     F .text	0000002c clearScore
0081df1c g     O .rwdata	00000008 alt_fs_list
0081721c g     F .text	00000290 check_file_name_for_FAT16_compliance
0081fe6c g     O .bss	0000000c playerDeath
0081fc20 g     O .bss	00000004 buffer_memory
0080434c g     F .text	00000030 closeFile
00813588 g     F .text	00000070 alt_up_audio_record_l
00821a88 g     O .bss	00000400 doNotMove
0080519c g     F .text	00000044 drawPixel
0081fbdc g     O .bss	00000008 alt_resettime
00806e98 g     F .text	00000010 nan
00803098 g     F .text	0000005c keepPlayerStationary
00800020 g       *ABS*	00000000 __ram_exceptions_start
0080e108 g     F .text	00000010 localeconv
0081316c g     F .text	0000009c alt_timestamp
00802f80 g     F .text	0000008c moveUpPlayer
00806b64 g     F .text	000002c8 __ieee754_sqrt
00813bc8 g     F .text	00000038 alt_up_av_config_enable_interrupt
008014fc g     F .text	00000078 parseBmps
008015f8 g     F .text	0000016c drawBmp
0081fc24 g     O .bss	00000004 fat_partition_offset_in_512_byte_sectors
00813c30 g     F .text	00000068 alt_up_av_config_read_acknowledge
00813fd0 g     F .text	00000064 alt_up_av_config_write_DC2_cfg_register
0081df44 g       *ABS*	00000000 _edata
0081def4 g     O .rwdata	00000004 toneLength
00822f80 g       *ABS*	00000000 _end
00805344 g     F .text	00000098 convert24BitRgbTo16
008227f0 g     O .bss	00000500 active_files
008001b8 g       *ABS*	00000000 __ram_exceptions_end
00803dc8 g     F .text	00000024 getCurrentPlayerLives
00818b78 g     F .text	00000154 copy_file_record_name_to_string
00812a74 g     F .text	000000f4 altera_avalon_jtag_uart_ioctl
0080072c g     F .text	00000090 playAudioMono
00817048 g     F .text	00000104 Look_for_FAT16
008136dc g     F .text	00000070 alt_up_audio_play_l
0080fce0 g     F .text	0000007c __swrite
0081df0c g     O .rwdata	00000004 __malloc_trim_threshold
0081aea8 g     F .text	00000020 altera_nios2_qsys_irq_init
0081b144 g     F .text	00000038 exit
008027b0 g     F .text	00000040 makeUpRight
00804cec g     F .text	0000004c drawSplashScreen
00818fa0 g     F .text	000003b0 alt_up_sd_card_find_next
0080df00 g     F .text	000000c8 _fwalk_reent
0080ee00 g     F .text	0000018c __mdiff
008140fc g     F .text	00000064 alt_up_av_config_read_LTM_cfg_register
00822288 g     O .bss	00000500 sharkArray
008085c8 g     F .text	00000060 __modsi3
00802c4c g     F .text	0000005c init_lcd
00802730 g     F .text	00000040 makeDownRight
0081607c g     F .text	000000fc Read_Sector_Data
01000000 g       *ABS*	00000000 __alt_data_end
00800020 g     F .exceptions	00000000 alt_exception
0080d3c0 g     F .text	00000004 __sfp_lock_release
00814360 g     F .text	00000078 alt_up_character_lcd_string
0081fb30 g     O .bss	00000004 playedWords
008030f4 g     F .text	00000068 hitPlayer
0081b518 g     F .text	00000020 _exit
00806e60 g     F .text	00000030 __isnand
0081a524 g     F .text	00000154 alt_alarm_start
00800590 g     F .text	000000cc loadSharkDeath
00808638 g     F .text	00000098 __muldi3
0081a398 g     F .text	000000fc Read_Sector_Data_CRC
00819814 g     F .text	00000394 alt_up_sd_card_read
0080e1b8 g     F .text	00000194 __smakebuf_r
00809834 g     F .text	00000074 strlen
0081acc0 g     F .text	00000188 open
00802ef8 g     F .text	00000044 drawPlayer
00802670 g     F .text	00000040 makeLeft
00810e98 g     F .text	00000088 __gedf2
00821e88 g     O .bss	00000400 arcDisplacementFunction
0080516c g     F .text	00000030 clearScreen
00813d7c g     F .text	000000f8 alt_up_av_config_read_video_cfg_register
00803d40 g     F .text	00000038 updateCurrentPlayerScore
0081aa78 g     F .text	00000030 alt_icache_flush_all
00800204 g     F .text	0000019c setupAudio
00814424 g     F .text	00000078 alt_up_character_lcd_set_cursor_pos
0081df34 g     O .rwdata	00000004 alt_priority_mask
0081fb54 g     O .bss	00000004 playerBmp
0080437c g     F .text	00000034 readByte
008010b8 g     F .text	00000444 parseBmp
008022f0 g     F .text	00000104 setupVerticalDisplacementFunction
008045d0 g     F .text	00000050 readPastWavHeader
0080b808 g     F .text	00000024 __vfprintf_internal
00814098 g     F .text	00000064 alt_up_av_config_write_D5M_cfg_register
0080792c g     F .text	00000080 __subdf3
0081fb34 g     O .bss	00000004 playCursor
008027f0 g     F .text	00000040 makeUpLeft
0080e6e0 g     F .text	000000c4 __lo0bits
0081df3c g     O .rwdata	00000008 alt_alarm_list
00800d98 g     F .text	00000138 updateAudioWithVolume
0081a91c g     F .text	00000064 _do_ctors
00801cc0 g     F .text	000000fc moveBulletRight
008003a0 g     F .text	00000058 setupAudioInterrupt
0081fb38 g     O .bss	00000002 status
00802e9c g     F .text	0000005c initPlayer
008110b4 g     F .text	000000fc close
0081fb10 g     O .bss	00000004 config
00800c10 g     F .text	00000044 playTheme
0081186c g     F .text	00000080 alt_load
00813270 g     F .text	0000004c alt_up_audio_enable_read_interrupt
00813e74 g     F .text	000000f8 alt_up_av_config_write_video_cfg_register
00808978 g     F .text	00000314 __pack_d
008049e4 g     F .text	00000124 createShark
0081756c g     F .text	000002ec match_file_record_to_name_ext
00808e9c g     F .text	00000014 free
0080d3c4 g     F .text	00000004 __sinit_lock_acquire
0080f2fc g     F .text	00000100 __multadd
0080e648 g     F .text	00000028 _Bfree
00813f6c g     F .text	00000064 alt_up_av_config_read_DC2_cfg_register
008133a8 g     F .text	0000003c alt_up_audio_read_interrupt_pending



Disassembly of section .entry:

00800000 <__reset>:
#if NIOS2_ICACHE_SIZE > 0 && defined(ALT_ALLOW_CODE_AT_RESET) && !defined(ALT_SIM_OPTIMIZE)
    /* Assume the instruction cache size is always a power of two. */
#if NIOS2_ICACHE_SIZE > 0x8000
    movhi r2, %hi(NIOS2_ICACHE_SIZE)
#else
    movui r2, NIOS2_ICACHE_SIZE
  800000:	00840014 	movui	r2,4096
#endif

0:
    initi r2
  800004:	1001483a 	initi	r2
    addi r2, r2, -NIOS2_ICACHE_LINE_SIZE
  800008:	10bff804 	addi	r2,r2,-32
    bgt r2, zero, 0b
  80000c:	00bffd16 	blt	zero,r2,800004 <__reset+0x4>
 * Jump to the _start entry point in the .text section if reset code
 * is allowed or if optimizing for RTL simulation.
 */
#if defined(ALT_ALLOW_CODE_AT_RESET) || defined(ALT_SIM_OPTIMIZE)
    /* Jump to the _start entry point in the .text section. */
    movhi r1, %hi(_start)
  800010:	00402034 	movhi	at,128
    ori r1, r1, %lo(_start)
  800014:	08406e14 	ori	at,at,440
    jmp r1
  800018:	0800683a 	jmp	at
  80001c:	00000000 	call	0 <__reset-0x800000>

Disassembly of section .exceptions:

00800020 <alt_exception>:
         * Process an exception.  For all exceptions we must preserve all
         * caller saved registers on the stack (See the Nios2 ABI
         * documentation for details).
         */

        addi  sp, sp, -76
  800020:	deffed04 	addi	sp,sp,-76

#endif

#endif

        stw   ra,  0(sp)
  800024:	dfc00015 	stw	ra,0(sp)
        /*
         * Leave a gap in the stack frame at 4(sp) for the muldiv handler to
         * store zero into.
         */

        stw   r1,   8(sp)
  800028:	d8400215 	stw	at,8(sp)
        stw   r2,  12(sp)
  80002c:	d8800315 	stw	r2,12(sp)
        stw   r3,  16(sp)
  800030:	d8c00415 	stw	r3,16(sp)
        stw   r4,  20(sp)
  800034:	d9000515 	stw	r4,20(sp)
        stw   r5,  24(sp)
  800038:	d9400615 	stw	r5,24(sp)
        stw   r6,  28(sp)
  80003c:	d9800715 	stw	r6,28(sp)
        stw   r7,  32(sp)
  800040:	d9c00815 	stw	r7,32(sp)

        rdctl r5, estatus
  800044:	000b307a 	rdctl	r5,estatus

        stw   r8,  36(sp)
  800048:	da000915 	stw	r8,36(sp)
        stw   r9,  40(sp)
  80004c:	da400a15 	stw	r9,40(sp)
        stw   r10, 44(sp)
  800050:	da800b15 	stw	r10,44(sp)
        stw   r11, 48(sp)
  800054:	dac00c15 	stw	r11,48(sp)
        stw   r12, 52(sp)
  800058:	db000d15 	stw	r12,52(sp)
        stw   r13, 56(sp)
  80005c:	db400e15 	stw	r13,56(sp)
        stw   r14, 60(sp)
  800060:	db800f15 	stw	r14,60(sp)
        stw   r15, 64(sp)
  800064:	dbc01015 	stw	r15,64(sp)
        /*
         * ea-4 contains the address of the instruction being executed
         * when the exception occured. For interrupt exceptions, we will
         * will be re-issue the isntruction. Store it in 72(sp)
         */
        stw   r5,  68(sp)  /* estatus */
  800068:	d9401115 	stw	r5,68(sp)
        addi  r15, ea, -4  /* instruction that caused exception */
  80006c:	ebffff04 	addi	r15,ea,-4
        stw   r15,  72(sp)
  800070:	dbc01215 	stw	r15,72(sp)
#else
        /*
         * Test to see if the exception was a software exception or caused 
         * by an external interrupt, and vector accordingly.
         */
        rdctl r4, ipending
  800074:	0009313a 	rdctl	r4,ipending
        andi  r2, r5, 1
  800078:	2880004c 	andi	r2,r5,1
        beq   r2, zero, .Lnot_irq
  80007c:	10000326 	beq	r2,zero,80008c <alt_exception+0x6c>
        beq   r4, zero, .Lnot_irq
  800080:	20000226 	beq	r4,zero,80008c <alt_exception+0x6c>
        /*
         * Now that all necessary registers have been preserved, call 
         * alt_irq_handler() to process the interrupts.
         */

        call alt_irq_handler
  800084:	08000ec0 	call	8000ec <alt_irq_handler>

        .section .exceptions.irqreturn, "xa"

        br    .Lexception_exit
  800088:	00000306 	br	800098 <alt_exception+0x78>
         * upon completion, so we write ea (address of instruction *after*
         * the one where the exception occured) into 72(sp). The actual
         * instruction that caused the exception is written in r2, which these
         * handlers will utilize.
         */
        stw   ea,  72(sp)  /* Don't re-issue */
  80008c:	df401215 	stw	ea,72(sp)
        ldw   r2, -4(ea)   /* Instruction that caused exception */
  800090:	e8bfff17 	ldw	r2,-4(ea)
#ifdef NIOS2_HAS_DEBUG_STUB
       /*
        *  Either tell the user now (if there is a debugger attached) or go into
        *  the debug monitor which will loop until a debugger is attached.
        */
        break
  800094:	003da03a 	break	0
        /* 
         * Restore the saved registers, so that all general purpose registers 
         * have been restored to their state at the time the interrupt occured.
         */

        ldw   r5,  68(sp)
  800098:	d9401117 	ldw	r5,68(sp)
        ldw   ea,  72(sp)  /* This becomes the PC once eret is executed */
  80009c:	df401217 	ldw	ea,72(sp)
        ldw   ra,   0(sp)
  8000a0:	dfc00017 	ldw	ra,0(sp)

        wrctl estatus, r5
  8000a4:	2801707a 	wrctl	estatus,r5

        ldw   r1,   8(sp)
  8000a8:	d8400217 	ldw	at,8(sp)
        ldw   r2,  12(sp)
  8000ac:	d8800317 	ldw	r2,12(sp)
        ldw   r3,  16(sp)
  8000b0:	d8c00417 	ldw	r3,16(sp)
        ldw   r4,  20(sp)
  8000b4:	d9000517 	ldw	r4,20(sp)
        ldw   r5,  24(sp)
  8000b8:	d9400617 	ldw	r5,24(sp)
        ldw   r6,  28(sp)
  8000bc:	d9800717 	ldw	r6,28(sp)
        ldw   r7,  32(sp)
  8000c0:	d9c00817 	ldw	r7,32(sp)
#ifdef ALT_STACK_CHECK
        ldw   et, %gprel(alt_exception_old_stack_limit)(gp)
#endif
#endif

        ldw   r8,  36(sp)
  8000c4:	da000917 	ldw	r8,36(sp)
        ldw   r9,  40(sp)
  8000c8:	da400a17 	ldw	r9,40(sp)
        ldw   r10, 44(sp)
  8000cc:	da800b17 	ldw	r10,44(sp)
        ldw   r11, 48(sp)
  8000d0:	dac00c17 	ldw	r11,48(sp)
        ldw   r12, 52(sp)
  8000d4:	db000d17 	ldw	r12,52(sp)
        ldw   r13, 56(sp)
  8000d8:	db400e17 	ldw	r13,56(sp)
        ldw   r14, 60(sp)
  8000dc:	db800f17 	ldw	r14,60(sp)
        ldw   r15, 64(sp)
  8000e0:	dbc01017 	ldw	r15,64(sp)
#endif

        ldw   sp,  76(sp)

#else
        addi  sp, sp, 76
  8000e4:	dec01304 	addi	sp,sp,76

        /*
         * Return to the interrupted instruction.
         */

        eret
  8000e8:	ef80083a 	eret

008000ec <alt_irq_handler>:
 * instruction is present if the macro ALT_CI_INTERRUPT_VECTOR defined.
 */

void alt_irq_handler (void) __attribute__ ((section (".exceptions")));
void alt_irq_handler (void)
{
  8000ec:	defff904 	addi	sp,sp,-28
  8000f0:	dfc00615 	stw	ra,24(sp)
  8000f4:	df000515 	stw	fp,20(sp)
  8000f8:	df000504 	addi	fp,sp,20
#ifndef NIOS2_EIC_PRESENT
static ALT_INLINE alt_u32 ALT_ALWAYS_INLINE alt_irq_pending (void)
{
  alt_u32 active;

  NIOS2_READ_IPENDING (active);
  8000fc:	0005313a 	rdctl	r2,ipending
  800100:	e0bffc15 	stw	r2,-16(fp)

  return active;
  800104:	e0bffc17 	ldw	r2,-16(fp)
   * Consider the case where the high priority interupt is asserted during
   * the interrupt entry sequence for a lower priority interrupt to see why
   * this is the case.
   */

  active = alt_irq_pending ();
  800108:	e0bfff15 	stw	r2,-4(fp)

  do
  {
    i = 0;
  80010c:	e03ffd15 	stw	zero,-12(fp)
    mask = 1;
  800110:	00800044 	movi	r2,1
  800114:	e0bffe15 	stw	r2,-8(fp)
     * called to clear the interrupt condition.
     */

    do
    {
      if (active & mask)
  800118:	e0ffff17 	ldw	r3,-4(fp)
  80011c:	e0bffe17 	ldw	r2,-8(fp)
  800120:	1884703a 	and	r2,r3,r2
  800124:	1005003a 	cmpeq	r2,r2,zero
  800128:	1000171e 	bne	r2,zero,800188 <alt_irq_handler+0x9c>
      { 
#ifdef ALT_ENHANCED_INTERRUPT_API_PRESENT
        alt_irq[i].handler(alt_irq[i].context); 
#else
        alt_irq[i].handler(alt_irq[i].context, i); 
  80012c:	e0bffd17 	ldw	r2,-12(fp)
  800130:	00c020b4 	movhi	r3,130
  800134:	18cb3c04 	addi	r3,r3,11504
  800138:	100490fa 	slli	r2,r2,3
  80013c:	10c5883a 	add	r2,r2,r3
  800140:	11800017 	ldw	r6,0(r2)
  800144:	e0bffd17 	ldw	r2,-12(fp)
  800148:	00c020b4 	movhi	r3,130
  80014c:	18cb3c04 	addi	r3,r3,11504
  800150:	100490fa 	slli	r2,r2,3
  800154:	10c5883a 	add	r2,r2,r3
  800158:	10800104 	addi	r2,r2,4
  80015c:	11000017 	ldw	r4,0(r2)
  800160:	e17ffd17 	ldw	r5,-12(fp)
  800164:	303ee83a 	callr	r6
#ifndef NIOS2_EIC_PRESENT
static ALT_INLINE alt_u32 ALT_ALWAYS_INLINE alt_irq_pending (void)
{
  alt_u32 active;

  NIOS2_READ_IPENDING (active);
  800168:	0005313a 	rdctl	r2,ipending
  80016c:	e0bffb15 	stw	r2,-20(fp)

  return active;
  800170:	e0bffb17 	ldw	r2,-20(fp)
      mask <<= 1;
      i++;

    } while (1);

    active = alt_irq_pending ();
  800174:	e0bfff15 	stw	r2,-4(fp)
    
  } while (active);
  800178:	e0bfff17 	ldw	r2,-4(fp)
  80017c:	1004c03a 	cmpne	r2,r2,zero
  800180:	103fe21e 	bne	r2,zero,80010c <alt_irq_handler+0x20>
  800184:	00000706 	br	8001a4 <alt_irq_handler+0xb8>
#else
        alt_irq[i].handler(alt_irq[i].context, i); 
#endif
        break;
      }
      mask <<= 1;
  800188:	e0bffe17 	ldw	r2,-8(fp)
  80018c:	1085883a 	add	r2,r2,r2
  800190:	e0bffe15 	stw	r2,-8(fp)
      i++;
  800194:	e0bffd17 	ldw	r2,-12(fp)
  800198:	10800044 	addi	r2,r2,1
  80019c:	e0bffd15 	stw	r2,-12(fp)

    } while (1);
  8001a0:	003fdd06 	br	800118 <alt_irq_handler+0x2c>
  /*
   * Notify the operating system that interrupt processing is complete.
   */ 

  ALT_OS_INT_EXIT();
}
  8001a4:	e037883a 	mov	sp,fp
  8001a8:	dfc00117 	ldw	ra,4(sp)
  8001ac:	df000017 	ldw	fp,0(sp)
  8001b0:	dec00204 	addi	sp,sp,8
  8001b4:	f800283a 	ret

Disassembly of section .text:

008001b8 <_start>:

    /* Assume the data cache size is always a power of two. */
#if NIOS2_DCACHE_SIZE > 0x8000
    movhi r2, %hi(NIOS2_DCACHE_SIZE)
#else
    movui r2, NIOS2_DCACHE_SIZE
  8001b8:	00900014 	movui	r2,16384
#endif

0:
    initd 0(r2)
  8001bc:	10000033 	initd	0(r2)
    addi r2, r2, -NIOS2_DCACHE_LINE_SIZE
  8001c0:	10bff804 	addi	r2,r2,-32
    bgt r2, zero, 0b
  8001c4:	00bffd16 	blt	zero,r2,8001bc <_start+0x4>
#if (NIOS2_NUM_OF_SHADOW_REG_SETS == 0)    
    /*
     * Now that the caches are initialized, set up the stack pointer.
     * The value provided by the linker is assumed to be correctly aligned.
     */
    movhi sp, %hi(__alt_stack_pointer)
  8001c8:	06c04034 	movhi	sp,256
    ori sp, sp, %lo(__alt_stack_pointer)
  8001cc:	dec00014 	ori	sp,sp,0

    /* Set up the global pointer. */
    movhi gp, %hi(_gp)
  8001d0:	068020b4 	movhi	gp,130
    ori gp, gp, %lo(_gp)
  8001d4:	d697bb14 	ori	gp,gp,24300
 */
#ifndef ALT_SIM_OPTIMIZE
    /* Log that the BSS is about to be cleared. */
    ALT_LOG_PUTS(alt_log_msg_bss)

    movhi r2, %hi(__bss_start)
  8001d8:	00802074 	movhi	r2,129
    ori r2, r2, %lo(__bss_start)
  8001dc:	10bec314 	ori	r2,r2,64268

    movhi r3, %hi(__bss_end)
  8001e0:	00c020b4 	movhi	r3,130
    ori r3, r3, %lo(__bss_end)
  8001e4:	18cbe014 	ori	r3,r3,12160

    beq r2, r3, 1f
  8001e8:	10c00326 	beq	r2,r3,8001f8 <_start+0x40>

0:
    stw zero, (r2)
  8001ec:	10000015 	stw	zero,0(r2)
    addi r2, r2, 4
  8001f0:	10800104 	addi	r2,r2,4
    bltu r2, r3, 0b
  8001f4:	10fffd36 	bltu	r2,r3,8001ec <_start+0x34>
     * section aren't defined until alt_load() has been called).
     */
    mov   et, zero
#endif

    call alt_load
  8001f8:	081186c0 	call	81186c <alt_load>

    /* Log that alt_main is about to be called. */
    ALT_LOG_PUTS(alt_log_msg_alt_main)

    /* Call the C entry point. It should never return. */
    call alt_main
  8001fc:	0811aa80 	call	811aa8 <alt_main>

00800200 <alt_after_alt_main>:

    /* Wait in infinite loop in case alt_main does return. */
alt_after_alt_main:
    br alt_after_alt_main
  800200:	003fff06 	br	800200 <alt_after_alt_main>

00800204 <setupAudio>:
struct audioInfo theme;

volatile int somethingForIrq;

void setupAudio()
{
  800204:	defffc04 	addi	sp,sp,-16
  800208:	dfc00315 	stw	ra,12(sp)
  80020c:	df000215 	stw	fp,8(sp)
  800210:	df000204 	addi	fp,sp,8
	bool error = false;
  800214:	e03fff15 	stw	zero,-4(fp)
	config = (alt_up_av_config_dev *)alt_up_av_config_open_dev(CONFIG_NAME);
  800218:	d1200017 	ldw	r4,-32768(gp)
  80021c:	0813a3c0 	call	813a3c <alt_up_av_config_open_dev>
  800220:	d0a70915 	stw	r2,-25564(gp)
	if (config == NULL) {
  800224:	d0a70917 	ldw	r2,-25564(gp)
  800228:	1004c03a 	cmpne	r2,r2,zero
  80022c:	1000051e 	bne	r2,zero,800244 <setupAudio+0x40>
		printf("Error: audio video config could not be opened.\n");
  800230:	010020b4 	movhi	r4,130
  800234:	212d7604 	addi	r4,r4,-18984
  800238:	080971c0 	call	80971c <puts>
		error = true;
  80023c:	00800044 	movi	r2,1
  800240:	e0bfff15 	stw	r2,-4(fp)
	}
	while (!alt_up_av_config_read_ready(config)) {
  800244:	d1270917 	ldw	r4,-25564(gp)
  800248:	0813c980 	call	813c98 <alt_up_av_config_read_ready>
  80024c:	1005003a 	cmpeq	r2,r2,zero
  800250:	103ffc1e 	bne	r2,zero,800244 <setupAudio+0x40>
	}

	audio = (alt_up_audio_dev *)alt_up_audio_open_dev(AUDIO_NAME);
  800254:	d1200117 	ldw	r4,-32764(gp)
  800258:	08132300 	call	813230 <alt_up_audio_open_dev>
  80025c:	d0a70815 	stw	r2,-25568(gp)
	if (config == NULL) {
  800260:	d0a70917 	ldw	r2,-25564(gp)
  800264:	1004c03a 	cmpne	r2,r2,zero
  800268:	1000061e 	bne	r2,zero,800284 <setupAudio+0x80>
		printf("Error: audio codec could not be opened.\n");
  80026c:	010020b4 	movhi	r4,130
  800270:	212d8204 	addi	r4,r4,-18936
  800274:	080971c0 	call	80971c <puts>
		error = true;
  800278:	00800044 	movi	r2,1
  80027c:	e0bfff15 	stw	r2,-4(fp)
  800280:	00000606 	br	80029c <setupAudio+0x98>
	} else if (DEBUG == 1) {
  800284:	d0a70a17 	ldw	r2,-25560(gp)
  800288:	10800058 	cmpnei	r2,r2,1
  80028c:	1000031e 	bne	r2,zero,80029c <setupAudio+0x98>
		printf("Successfully opened audio codec.\n");
  800290:	010020b4 	movhi	r4,130
  800294:	212d8c04 	addi	r4,r4,-18896
  800298:	080971c0 	call	80971c <puts>
	}
    int interruptStatus = setupAudioInterrupt(audio, somethingForIrq);
  80029c:	d1270817 	ldw	r4,-25568(gp)
  8002a0:	d1671017 	ldw	r5,-25536(gp)
  8002a4:	08003a00 	call	8003a0 <setupAudioInterrupt>
  8002a8:	e0bffe15 	stw	r2,-8(fp)

    if (interruptStatus < 0) {
  8002ac:	e0bffe17 	ldw	r2,-8(fp)
  8002b0:	1004403a 	cmpge	r2,r2,zero
  8002b4:	1000061e 	bne	r2,zero,8002d0 <setupAudio+0xcc>
		printf("Error: audio interrupt could not be setup.\n");
  8002b8:	010020b4 	movhi	r4,130
  8002bc:	212d9504 	addi	r4,r4,-18860
  8002c0:	080971c0 	call	80971c <puts>
		error = true;
  8002c4:	00800044 	movi	r2,1
  8002c8:	e0bfff15 	stw	r2,-4(fp)
  8002cc:	00000606 	br	8002e8 <setupAudio+0xe4>
	} else if (DEBUG == 1) {
  8002d0:	d0a70a17 	ldw	r2,-25560(gp)
  8002d4:	10800058 	cmpnei	r2,r2,1
  8002d8:	1000031e 	bne	r2,zero,8002e8 <setupAudio+0xe4>
		printf("Successfully setup audio interrupts.\n");
  8002dc:	010020b4 	movhi	r4,130
  8002e0:	212da004 	addi	r4,r4,-18816
  8002e4:	080971c0 	call	80971c <puts>
	}

    laser.mainBuffer = NULL;
  8002e8:	008020b4 	movhi	r2,130
  8002ec:	10bf9504 	addi	r2,r2,-428
  8002f0:	10000015 	stw	zero,0(r2)
    laser.volumeBuffer = NULL;
  8002f4:	008020b4 	movhi	r2,130
  8002f8:	10bf9504 	addi	r2,r2,-428
  8002fc:	10000115 	stw	zero,4(r2)
    loadLaser();
  800300:	08003f80 	call	8003f8 <loadLaser>
    playerDeath.mainBuffer = NULL;
  800304:	008020b4 	movhi	r2,130
  800308:	10bf9b04 	addi	r2,r2,-404
  80030c:	10000015 	stw	zero,0(r2)
    playerDeath.volumeBuffer = NULL;
  800310:	008020b4 	movhi	r2,130
  800314:	10bf9b04 	addi	r2,r2,-404
  800318:	10000115 	stw	zero,4(r2)
    loadPlayerDeath();
  80031c:	08004c40 	call	8004c4 <loadPlayerDeath>
    sharkDeath.mainBuffer = NULL;
  800320:	008020b4 	movhi	r2,130
  800324:	10bf9204 	addi	r2,r2,-440
  800328:	10000015 	stw	zero,0(r2)
    sharkDeath.volumeBuffer = NULL;
  80032c:	008020b4 	movhi	r2,130
  800330:	10bf9204 	addi	r2,r2,-440
  800334:	10000115 	stw	zero,4(r2)
    loadSharkDeath();
  800338:	08005900 	call	800590 <loadSharkDeath>
    theme.mainBuffer = NULL;
  80033c:	008020b4 	movhi	r2,130
  800340:	10bf9804 	addi	r2,r2,-416
  800344:	10000015 	stw	zero,0(r2)
    theme.volumeBuffer = NULL;
  800348:	008020b4 	movhi	r2,130
  80034c:	10bf9804 	addi	r2,r2,-416
  800350:	10000115 	stw	zero,4(r2)
    loadTheme();
  800354:	080065c0 	call	80065c <loadTheme>
    printf("finised loading sound buffers.\n");
  800358:	010020b4 	movhi	r4,130
  80035c:	212daa04 	addi	r4,r4,-18776
  800360:	080971c0 	call	80971c <puts>

	status = NONE;
  800364:	d027130d 	sth	zero,-25524(gp)

	if (DEBUG == 1 && error == false) {
  800368:	d0a70a17 	ldw	r2,-25560(gp)
  80036c:	10800058 	cmpnei	r2,r2,1
  800370:	1000061e 	bne	r2,zero,80038c <setupAudio+0x188>
  800374:	e0bfff17 	ldw	r2,-4(fp)
  800378:	1004c03a 	cmpne	r2,r2,zero
  80037c:	1000031e 	bne	r2,zero,80038c <setupAudio+0x188>
		printf("Successfully setup sound.\n");
  800380:	010020b4 	movhi	r4,130
  800384:	212db204 	addi	r4,r4,-18744
  800388:	080971c0 	call	80971c <puts>
	}
}
  80038c:	e037883a 	mov	sp,fp
  800390:	dfc00117 	ldw	ra,4(sp)
  800394:	df000017 	ldw	fp,0(sp)
  800398:	dec00204 	addi	sp,sp,8
  80039c:	f800283a 	ret

008003a0 <setupAudioInterrupt>:

int setupAudioInterrupt(alt_up_audio_dev *audio, volatile int somethingForIrq)
{
  8003a0:	defffb04 	addi	sp,sp,-20
  8003a4:	dfc00415 	stw	ra,16(sp)
  8003a8:	df000315 	stw	fp,12(sp)
  8003ac:	df000304 	addi	fp,sp,12
  8003b0:	e13ffe15 	stw	r4,-8(fp)
  8003b4:	e17fff15 	stw	r5,-4(fp)
    // Need to disable both audio interrupts before setting them up
    // otherwise you get stuck in them when they are setup
    alt_up_audio_disable_read_interrupt(audio);
  8003b8:	e13ffe17 	ldw	r4,-8(fp)
  8003bc:	08132bc0 	call	8132bc <alt_up_audio_disable_read_interrupt>
    alt_up_audio_disable_write_interrupt(audio);
  8003c0:	e13ffe17 	ldw	r4,-8(fp)
  8003c4:	08133580 	call	813358 <alt_up_audio_disable_write_interrupt>

    void *irqInt = (void*)&somethingForIrq;
  8003c8:	e0bfff04 	addi	r2,fp,-4
  8003cc:	e0bffd15 	stw	r2,-12(fp)

	#ifdef ALT_ENHANCED_INTERRUPT_API_PRESENT
	return alt_ic_isr_register(AUDIO_0_IRQ_INTERRUPT_CONTROLLER_ID, AUDIO_0_IRQ, playSoundISR, irqInt, 0x0);
	#else
	return alt_irq_register(AUDIO_0_IRQ, irqInt, playSoundISR);
  8003d0:	010000c4 	movi	r4,3
  8003d4:	e17ffd17 	ldw	r5,-12(fp)
  8003d8:	01802034 	movhi	r6,128
  8003dc:	31831504 	addi	r6,r6,3156
  8003e0:	081158c0 	call	81158c <alt_irq_register>
	#endif
}
  8003e4:	e037883a 	mov	sp,fp
  8003e8:	dfc00117 	ldw	ra,4(sp)
  8003ec:	df000017 	ldw	fp,0(sp)
  8003f0:	dec00204 	addi	sp,sp,8
  8003f4:	f800283a 	ret

008003f8 <loadLaser>:

void loadLaser() {
  8003f8:	defffe04 	addi	sp,sp,-8
  8003fc:	dfc00115 	stw	ra,4(sp)
  800400:	df000015 	stw	fp,0(sp)
  800404:	d839883a 	mov	fp,sp
    laser.bufferLength = 38384;
  800408:	00c020b4 	movhi	r3,130
  80040c:	18ff9504 	addi	r3,r3,-428
  800410:	00a57c14 	movui	r2,38384
  800414:	18800215 	stw	r2,8(r3)
	audioFileWordLength = laser.bufferLength;
  800418:	008020b4 	movhi	r2,130
  80041c:	10bf9504 	addi	r2,r2,-428
  800420:	10800217 	ldw	r2,8(r2)
  800424:	d0a70e15 	stw	r2,-25544(gp)
	if (laser.mainBuffer == NULL || laser.volumeBuffer == NULL) {
  800428:	008020b4 	movhi	r2,130
  80042c:	10bf9504 	addi	r2,r2,-428
  800430:	10800017 	ldw	r2,0(r2)
  800434:	1005003a 	cmpeq	r2,r2,zero
  800438:	1000051e 	bne	r2,zero,800450 <loadLaser+0x58>
  80043c:	008020b4 	movhi	r2,130
  800440:	10bf9504 	addi	r2,r2,-428
  800444:	10800117 	ldw	r2,4(r2)
  800448:	1004c03a 	cmpne	r2,r2,zero
  80044c:	10000e1e 	bne	r2,zero,800488 <loadLaser+0x90>
		readWavFile("laserii.wav", laser.bufferLength);
  800450:	008020b4 	movhi	r2,130
  800454:	10bf9504 	addi	r2,r2,-428
  800458:	11400217 	ldw	r5,8(r2)
  80045c:	010020b4 	movhi	r4,130
  800460:	212db904 	addi	r4,r4,-18716
  800464:	08009f80 	call	8009f8 <readWavFile>
		//laserBuffer = audioBuffer;
		laser.mainBuffer = audioBuffer;
  800468:	d0e70b17 	ldw	r3,-25556(gp)
  80046c:	008020b4 	movhi	r2,130
  800470:	10bf9504 	addi	r2,r2,-428
  800474:	10c00015 	stw	r3,0(r2)
		laser.volumeBuffer = audioVolumeBuffer;
  800478:	d0e70c17 	ldw	r3,-25552(gp)
  80047c:	008020b4 	movhi	r2,130
  800480:	10bf9504 	addi	r2,r2,-428
  800484:	10c00115 	stw	r3,4(r2)
	}
	//audioBuffer = laserBuffer;
	audioBuffer = laser.mainBuffer;
  800488:	008020b4 	movhi	r2,130
  80048c:	10bf9504 	addi	r2,r2,-428
  800490:	10800017 	ldw	r2,0(r2)
  800494:	d0a70b15 	stw	r2,-25556(gp)
	audioVolumeBuffer = laser.volumeBuffer;
  800498:	008020b4 	movhi	r2,130
  80049c:	10bf9504 	addi	r2,r2,-428
  8004a0:	10800117 	ldw	r2,4(r2)
  8004a4:	d0a70c15 	stw	r2,-25552(gp)
	loaded = LASER;
  8004a8:	00800044 	movi	r2,1
  8004ac:	d0a70d0d 	sth	r2,-25548(gp)
}
  8004b0:	e037883a 	mov	sp,fp
  8004b4:	dfc00117 	ldw	ra,4(sp)
  8004b8:	df000017 	ldw	fp,0(sp)
  8004bc:	dec00204 	addi	sp,sp,8
  8004c0:	f800283a 	ret

008004c4 <loadPlayerDeath>:

void loadPlayerDeath() {
  8004c4:	defffe04 	addi	sp,sp,-8
  8004c8:	dfc00115 	stw	ra,4(sp)
  8004cc:	df000015 	stw	fp,0(sp)
  8004d0:	d839883a 	mov	fp,sp
	playerDeath.bufferLength = 0x0000DAFF / 2;
  8004d4:	00c020b4 	movhi	r3,130
  8004d8:	18ff9b04 	addi	r3,r3,-404
  8004dc:	009b5fc4 	movi	r2,28031
  8004e0:	18800215 	stw	r2,8(r3)
	audioFileWordLength = playerDeath.bufferLength;
  8004e4:	008020b4 	movhi	r2,130
  8004e8:	10bf9b04 	addi	r2,r2,-404
  8004ec:	10800217 	ldw	r2,8(r2)
  8004f0:	d0a70e15 	stw	r2,-25544(gp)
	if (playerDeath.mainBuffer == NULL || playerDeath.volumeBuffer == NULL) {
  8004f4:	008020b4 	movhi	r2,130
  8004f8:	10bf9b04 	addi	r2,r2,-404
  8004fc:	10800017 	ldw	r2,0(r2)
  800500:	1005003a 	cmpeq	r2,r2,zero
  800504:	1000051e 	bne	r2,zero,80051c <loadPlayerDeath+0x58>
  800508:	008020b4 	movhi	r2,130
  80050c:	10bf9b04 	addi	r2,r2,-404
  800510:	10800117 	ldw	r2,4(r2)
  800514:	1004c03a 	cmpne	r2,r2,zero
  800518:	10000e1e 	bne	r2,zero,800554 <loadPlayerDeath+0x90>
		readWavFile("pdie.wav", playerDeath.bufferLength);
  80051c:	008020b4 	movhi	r2,130
  800520:	10bf9b04 	addi	r2,r2,-404
  800524:	11400217 	ldw	r5,8(r2)
  800528:	010020b4 	movhi	r4,130
  80052c:	212dbc04 	addi	r4,r4,-18704
  800530:	08009f80 	call	8009f8 <readWavFile>
		//playerDeathBuffer = audioBuffer;
		playerDeath.mainBuffer = audioBuffer;
  800534:	d0e70b17 	ldw	r3,-25556(gp)
  800538:	008020b4 	movhi	r2,130
  80053c:	10bf9b04 	addi	r2,r2,-404
  800540:	10c00015 	stw	r3,0(r2)
		playerDeath.volumeBuffer = audioVolumeBuffer;
  800544:	d0e70c17 	ldw	r3,-25552(gp)
  800548:	008020b4 	movhi	r2,130
  80054c:	10bf9b04 	addi	r2,r2,-404
  800550:	10c00115 	stw	r3,4(r2)
	}
	//audioBuffer = playerDeathBuffer;
	audioBuffer = playerDeath.mainBuffer;
  800554:	008020b4 	movhi	r2,130
  800558:	10bf9b04 	addi	r2,r2,-404
  80055c:	10800017 	ldw	r2,0(r2)
  800560:	d0a70b15 	stw	r2,-25556(gp)
	audioVolumeBuffer = playerDeath.volumeBuffer;
  800564:	008020b4 	movhi	r2,130
  800568:	10bf9b04 	addi	r2,r2,-404
  80056c:	10800117 	ldw	r2,4(r2)
  800570:	d0a70c15 	stw	r2,-25552(gp)
	loaded = PLAYER_DEATH;
  800574:	00800084 	movi	r2,2
  800578:	d0a70d0d 	sth	r2,-25548(gp)
}
  80057c:	e037883a 	mov	sp,fp
  800580:	dfc00117 	ldw	ra,4(sp)
  800584:	df000017 	ldw	fp,0(sp)
  800588:	dec00204 	addi	sp,sp,8
  80058c:	f800283a 	ret

00800590 <loadSharkDeath>:

void loadSharkDeath() {
  800590:	defffe04 	addi	sp,sp,-8
  800594:	dfc00115 	stw	ra,4(sp)
  800598:	df000015 	stw	fp,0(sp)
  80059c:	d839883a 	mov	fp,sp
	sharkDeath.bufferLength = 0x0000DAFF / 2;
  8005a0:	00c020b4 	movhi	r3,130
  8005a4:	18ff9204 	addi	r3,r3,-440
  8005a8:	009b5fc4 	movi	r2,28031
  8005ac:	18800215 	stw	r2,8(r3)
	audioFileWordLength = sharkDeath.bufferLength;
  8005b0:	008020b4 	movhi	r2,130
  8005b4:	10bf9204 	addi	r2,r2,-440
  8005b8:	10800217 	ldw	r2,8(r2)
  8005bc:	d0a70e15 	stw	r2,-25544(gp)
	if (sharkDeath.mainBuffer == NULL || sharkDeath.volumeBuffer == NULL) {
  8005c0:	008020b4 	movhi	r2,130
  8005c4:	10bf9204 	addi	r2,r2,-440
  8005c8:	10800017 	ldw	r2,0(r2)
  8005cc:	1005003a 	cmpeq	r2,r2,zero
  8005d0:	1000051e 	bne	r2,zero,8005e8 <loadSharkDeath+0x58>
  8005d4:	008020b4 	movhi	r2,130
  8005d8:	10bf9204 	addi	r2,r2,-440
  8005dc:	10800117 	ldw	r2,4(r2)
  8005e0:	1004c03a 	cmpne	r2,r2,zero
  8005e4:	10000e1e 	bne	r2,zero,800620 <loadSharkDeath+0x90>
		readWavFile("sdie.wav", sharkDeath.bufferLength);
  8005e8:	008020b4 	movhi	r2,130
  8005ec:	10bf9204 	addi	r2,r2,-440
  8005f0:	11400217 	ldw	r5,8(r2)
  8005f4:	010020b4 	movhi	r4,130
  8005f8:	212dbf04 	addi	r4,r4,-18692
  8005fc:	08009f80 	call	8009f8 <readWavFile>
		//sharkDeathBuffer = audioBuffer;
		sharkDeath.mainBuffer = audioBuffer;
  800600:	d0e70b17 	ldw	r3,-25556(gp)
  800604:	008020b4 	movhi	r2,130
  800608:	10bf9204 	addi	r2,r2,-440
  80060c:	10c00015 	stw	r3,0(r2)
		sharkDeath.volumeBuffer = audioVolumeBuffer;
  800610:	d0e70c17 	ldw	r3,-25552(gp)
  800614:	008020b4 	movhi	r2,130
  800618:	10bf9204 	addi	r2,r2,-440
  80061c:	10c00115 	stw	r3,4(r2)
	}
	//audioBuffer = sharkDeathBuffer;
	audioBuffer = sharkDeath.mainBuffer;
  800620:	008020b4 	movhi	r2,130
  800624:	10bf9204 	addi	r2,r2,-440
  800628:	10800017 	ldw	r2,0(r2)
  80062c:	d0a70b15 	stw	r2,-25556(gp)
	audioVolumeBuffer = sharkDeath.volumeBuffer;
  800630:	008020b4 	movhi	r2,130
  800634:	10bf9204 	addi	r2,r2,-440
  800638:	10800117 	ldw	r2,4(r2)
  80063c:	d0a70c15 	stw	r2,-25552(gp)
	loaded = SHARK_DEATH;
  800640:	008000c4 	movi	r2,3
  800644:	d0a70d0d 	sth	r2,-25548(gp)
}
  800648:	e037883a 	mov	sp,fp
  80064c:	dfc00117 	ldw	ra,4(sp)
  800650:	df000017 	ldw	fp,0(sp)
  800654:	dec00204 	addi	sp,sp,8
  800658:	f800283a 	ret

0080065c <loadTheme>:

void loadTheme() {
  80065c:	defffe04 	addi	sp,sp,-8
  800660:	dfc00115 	stw	ra,4(sp)
  800664:	df000015 	stw	fp,0(sp)
  800668:	d839883a 	mov	fp,sp
	theme.bufferLength = 0x00063E00 / 2;
  80066c:	00c020b4 	movhi	r3,130
  800670:	18ff9804 	addi	r3,r3,-416
  800674:	008000f4 	movhi	r2,3
  800678:	1087c004 	addi	r2,r2,7936
  80067c:	18800215 	stw	r2,8(r3)
	audioFileWordLength = theme.bufferLength;
  800680:	008020b4 	movhi	r2,130
  800684:	10bf9804 	addi	r2,r2,-416
  800688:	10800217 	ldw	r2,8(r2)
  80068c:	d0a70e15 	stw	r2,-25544(gp)
	if (theme.mainBuffer == NULL || theme.volumeBuffer == NULL) {
  800690:	008020b4 	movhi	r2,130
  800694:	10bf9804 	addi	r2,r2,-416
  800698:	10800017 	ldw	r2,0(r2)
  80069c:	1005003a 	cmpeq	r2,r2,zero
  8006a0:	1000051e 	bne	r2,zero,8006b8 <loadTheme+0x5c>
  8006a4:	008020b4 	movhi	r2,130
  8006a8:	10bf9804 	addi	r2,r2,-416
  8006ac:	10800117 	ldw	r2,4(r2)
  8006b0:	1004c03a 	cmpne	r2,r2,zero
  8006b4:	10000e1e 	bne	r2,zero,8006f0 <loadTheme+0x94>
		readWavFile("theme.wav", theme.bufferLength);
  8006b8:	008020b4 	movhi	r2,130
  8006bc:	10bf9804 	addi	r2,r2,-416
  8006c0:	11400217 	ldw	r5,8(r2)
  8006c4:	010020b4 	movhi	r4,130
  8006c8:	212dc204 	addi	r4,r4,-18680
  8006cc:	08009f80 	call	8009f8 <readWavFile>
		//themeBuffer = audioBuffer;
		theme.mainBuffer = audioBuffer;
  8006d0:	d0e70b17 	ldw	r3,-25556(gp)
  8006d4:	008020b4 	movhi	r2,130
  8006d8:	10bf9804 	addi	r2,r2,-416
  8006dc:	10c00015 	stw	r3,0(r2)
		theme.volumeBuffer = audioVolumeBuffer;
  8006e0:	d0e70c17 	ldw	r3,-25552(gp)
  8006e4:	008020b4 	movhi	r2,130
  8006e8:	10bf9804 	addi	r2,r2,-416
  8006ec:	10c00115 	stw	r3,4(r2)
	}
	//audioBuffer = themeBuffer;
	audioBuffer = theme.mainBuffer;
  8006f0:	008020b4 	movhi	r2,130
  8006f4:	10bf9804 	addi	r2,r2,-416
  8006f8:	10800017 	ldw	r2,0(r2)
  8006fc:	d0a70b15 	stw	r2,-25556(gp)
	audioVolumeBuffer = theme.volumeBuffer;
  800700:	008020b4 	movhi	r2,130
  800704:	10bf9804 	addi	r2,r2,-416
  800708:	10800117 	ldw	r2,4(r2)
  80070c:	d0a70c15 	stw	r2,-25552(gp)
	loaded = THEME;
  800710:	00800104 	movi	r2,4
  800714:	d0a70d0d 	sth	r2,-25548(gp)
}
  800718:	e037883a 	mov	sp,fp
  80071c:	dfc00117 	ldw	ra,4(sp)
  800720:	df000017 	ldw	fp,0(sp)
  800724:	dec00204 	addi	sp,sp,8
  800728:	f800283a 	ret

0080072c <playAudioMono>:

void playAudioMono(int length) {
  80072c:	defffb04 	addi	sp,sp,-20
  800730:	dfc00415 	stw	ra,16(sp)
  800734:	df000315 	stw	fp,12(sp)
  800738:	df000304 	addi	fp,sp,12
  80073c:	e13fff15 	stw	r4,-4(fp)
	if (DEBUG == 1) {
  800740:	d0a70a17 	ldw	r2,-25560(gp)
  800744:	10800058 	cmpnei	r2,r2,1
  800748:	1000031e 	bne	r2,zero,800758 <playAudioMono+0x2c>
		printf("Playing audio.\n");
  80074c:	010020b4 	movhi	r4,130
  800750:	212dc504 	addi	r4,r4,-18668
  800754:	080971c0 	call	80971c <puts>
	}
	int left = alt_up_audio_write_fifo(audio, (unsigned int *)playCursor, length, ALT_UP_AUDIO_LEFT);
  800758:	d1270817 	ldw	r4,-25568(gp)
  80075c:	d0a71217 	ldw	r2,-25528(gp)
  800760:	100b883a 	mov	r5,r2
  800764:	e1bfff17 	ldw	r6,-4(fp)
  800768:	000f883a 	mov	r7,zero
  80076c:	08138500 	call	813850 <alt_up_audio_write_fifo>
  800770:	e0bffe15 	stw	r2,-8(fp)
	int right = alt_up_audio_write_fifo(audio, (unsigned int *)playCursor, length, ALT_UP_AUDIO_RIGHT);
  800774:	d1270817 	ldw	r4,-25568(gp)
  800778:	d0a71217 	ldw	r2,-25528(gp)
  80077c:	100b883a 	mov	r5,r2
  800780:	e1bfff17 	ldw	r6,-4(fp)
  800784:	01c00044 	movi	r7,1
  800788:	08138500 	call	813850 <alt_up_audio_write_fifo>
  80078c:	e0bffd15 	stw	r2,-12(fp)
	left++;
  800790:	e0bffe17 	ldw	r2,-8(fp)
  800794:	10800044 	addi	r2,r2,1
  800798:	e0bffe15 	stw	r2,-8(fp)
	right++;
  80079c:	e0bffd17 	ldw	r2,-12(fp)
  8007a0:	10800044 	addi	r2,r2,1
  8007a4:	e0bffd15 	stw	r2,-12(fp)
	//playAudio(buffer, length, buffer, length);
}
  8007a8:	e037883a 	mov	sp,fp
  8007ac:	dfc00117 	ldw	ra,4(sp)
  8007b0:	df000017 	ldw	fp,0(sp)
  8007b4:	dec00204 	addi	sp,sp,8
  8007b8:	f800283a 	ret

008007bc <playAudio>:

void playAudio(unsigned int *leftBuffer, int leftLength, unsigned int *rightBuffer, int rightLength) {
  8007bc:	defff804 	addi	sp,sp,-32
  8007c0:	dfc00715 	stw	ra,28(sp)
  8007c4:	df000615 	stw	fp,24(sp)
  8007c8:	df000604 	addi	fp,sp,24
  8007cc:	e13ffc15 	stw	r4,-16(fp)
  8007d0:	e17ffd15 	stw	r5,-12(fp)
  8007d4:	e1bffe15 	stw	r6,-8(fp)
  8007d8:	e1ffff15 	stw	r7,-4(fp)
	int leftWritten = alt_up_audio_write_fifo(audio, leftBuffer, leftLength, ALT_UP_AUDIO_LEFT);
  8007dc:	d1270817 	ldw	r4,-25568(gp)
  8007e0:	e17ffc17 	ldw	r5,-16(fp)
  8007e4:	e1bffd17 	ldw	r6,-12(fp)
  8007e8:	000f883a 	mov	r7,zero
  8007ec:	08138500 	call	813850 <alt_up_audio_write_fifo>
  8007f0:	e0bffb15 	stw	r2,-20(fp)
	if (DEBUG == 1) {
  8007f4:	d0a70a17 	ldw	r2,-25560(gp)
  8007f8:	10800058 	cmpnei	r2,r2,1
  8007fc:	1000041e 	bne	r2,zero,800810 <playAudio+0x54>
		printf("Wrote %d to left audio FIFO. with value\n", leftWritten);
  800800:	010020b4 	movhi	r4,130
  800804:	212dc904 	addi	r4,r4,-18652
  800808:	e17ffb17 	ldw	r5,-20(fp)
  80080c:	08096040 	call	809604 <printf>
	}

	int rightWritten = alt_up_audio_write_fifo(audio, rightBuffer, rightLength, ALT_UP_AUDIO_RIGHT);
  800810:	d1270817 	ldw	r4,-25568(gp)
  800814:	e17ffe17 	ldw	r5,-8(fp)
  800818:	e1bfff17 	ldw	r6,-4(fp)
  80081c:	01c00044 	movi	r7,1
  800820:	08138500 	call	813850 <alt_up_audio_write_fifo>
  800824:	e0bffa15 	stw	r2,-24(fp)
	if (DEBUG == 1) {
  800828:	d0a70a17 	ldw	r2,-25560(gp)
  80082c:	10800058 	cmpnei	r2,r2,1
  800830:	1000041e 	bne	r2,zero,800844 <playAudio+0x88>
		printf("Wrote %d to right audio FIFO.\n", rightWritten);
  800834:	010020b4 	movhi	r4,130
  800838:	212dd404 	addi	r4,r4,-18608
  80083c:	e17ffa17 	ldw	r5,-24(fp)
  800840:	08096040 	call	809604 <printf>
	}
}
  800844:	e037883a 	mov	sp,fp
  800848:	dfc00117 	ldw	ra,4(sp)
  80084c:	df000017 	ldw	fp,0(sp)
  800850:	dec00204 	addi	sp,sp,8
  800854:	f800283a 	ret

00800858 <audioTest>:

void audioTest()
{
  800858:	defff504 	addi	sp,sp,-44
  80085c:	dfc00a15 	stw	ra,40(sp)
  800860:	df000915 	stw	fp,36(sp)
  800864:	df000904 	addi	fp,sp,36
	setupAudio();
  800868:	08002040 	call	800204 <setupAudio>
	printf("Starting audio test\n");
  80086c:	010020b4 	movhi	r4,130
  800870:	212ddc04 	addi	r4,r4,-18576
  800874:	080971c0 	call	80971c <puts>
	int length = 8;
  800878:	00800204 	movi	r2,8
  80087c:	e0bffb15 	stw	r2,-20(fp)
	unsigned int right [length];
  800880:	e0bffb17 	ldw	r2,-20(fp)
  800884:	1085883a 	add	r2,r2,r2
  800888:	1085883a 	add	r2,r2,r2
  80088c:	108000c4 	addi	r2,r2,3
  800890:	108000c4 	addi	r2,r2,3
  800894:	1004d0ba 	srli	r2,r2,2
  800898:	1085883a 	add	r2,r2,r2
  80089c:	1085883a 	add	r2,r2,r2
  8008a0:	d8b7c83a 	sub	sp,sp,r2
  8008a4:	e6ffff15 	stw	sp,-4(fp)
  8008a8:	e0ffff17 	ldw	r3,-4(fp)
  8008ac:	188000c4 	addi	r2,r3,3
  8008b0:	1004d0ba 	srli	r2,r2,2
  8008b4:	1085883a 	add	r2,r2,r2
  8008b8:	1085883a 	add	r2,r2,r2
  8008bc:	e0bfff15 	stw	r2,-4(fp)
  8008c0:	e0bfff17 	ldw	r2,-4(fp)
  8008c4:	e0bffd15 	stw	r2,-12(fp)
	unsigned int left [length];
  8008c8:	e0bffb17 	ldw	r2,-20(fp)
  8008cc:	1085883a 	add	r2,r2,r2
  8008d0:	1085883a 	add	r2,r2,r2
  8008d4:	108000c4 	addi	r2,r2,3
  8008d8:	108000c4 	addi	r2,r2,3
  8008dc:	1004d0ba 	srli	r2,r2,2
  8008e0:	1085883a 	add	r2,r2,r2
  8008e4:	1085883a 	add	r2,r2,r2
  8008e8:	d8b7c83a 	sub	sp,sp,r2
  8008ec:	e6fffe15 	stw	sp,-8(fp)
  8008f0:	e0fffe17 	ldw	r3,-8(fp)
  8008f4:	188000c4 	addi	r2,r3,3
  8008f8:	1004d0ba 	srli	r2,r2,2
  8008fc:	1085883a 	add	r2,r2,r2
  800900:	1085883a 	add	r2,r2,r2
  800904:	e0bffe15 	stw	r2,-8(fp)
  800908:	e0bffe17 	ldw	r2,-8(fp)
  80090c:	e0bffc15 	stw	r2,-16(fp)
	int i;

	for (i = 0; i < length; i++) {
  800910:	e03ffa15 	stw	zero,-24(fp)
  800914:	00001b06 	br	800984 <audioTest+0x12c>
		right[i] = (i * i * i) & 0x0000FFFF;
  800918:	e17ffa17 	ldw	r5,-24(fp)
  80091c:	e0fffa17 	ldw	r3,-24(fp)
  800920:	e0bffa17 	ldw	r2,-24(fp)
  800924:	1887383a 	mul	r3,r3,r2
  800928:	e0bffa17 	ldw	r2,-24(fp)
  80092c:	1885383a 	mul	r2,r3,r2
  800930:	113fffcc 	andi	r4,r2,65535
  800934:	e0fffd17 	ldw	r3,-12(fp)
  800938:	2945883a 	add	r2,r5,r5
  80093c:	1085883a 	add	r2,r2,r2
  800940:	10c5883a 	add	r2,r2,r3
  800944:	11000015 	stw	r4,0(r2)
		left[i] = right[i];
  800948:	e17ffa17 	ldw	r5,-24(fp)
  80094c:	e0bffa17 	ldw	r2,-24(fp)
  800950:	e0fffd17 	ldw	r3,-12(fp)
  800954:	1085883a 	add	r2,r2,r2
  800958:	1085883a 	add	r2,r2,r2
  80095c:	10c5883a 	add	r2,r2,r3
  800960:	11000017 	ldw	r4,0(r2)
  800964:	e0fffc17 	ldw	r3,-16(fp)
  800968:	2945883a 	add	r2,r5,r5
  80096c:	1085883a 	add	r2,r2,r2
  800970:	10c5883a 	add	r2,r2,r3
  800974:	11000015 	stw	r4,0(r2)
	int length = 8;
	unsigned int right [length];
	unsigned int left [length];
	int i;

	for (i = 0; i < length; i++) {
  800978:	e0bffa17 	ldw	r2,-24(fp)
  80097c:	10800044 	addi	r2,r2,1
  800980:	e0bffa15 	stw	r2,-24(fp)
  800984:	e0fffa17 	ldw	r3,-24(fp)
  800988:	e0bffb17 	ldw	r2,-20(fp)
  80098c:	18bfe216 	blt	r3,r2,800918 <audioTest+0xc0>
		right[i] = (i * i * i) & 0x0000FFFF;
		left[i] = right[i];
	}

	unsigned int *rightBuffer = right;
  800990:	e0bffd17 	ldw	r2,-12(fp)
  800994:	e0bff915 	stw	r2,-28(fp)
	unsigned int *leftBuffer = left;
  800998:	e0bffc17 	ldw	r2,-16(fp)
  80099c:	e0bff815 	stw	r2,-32(fp)

	//sin (param*PI/180); for degrees, it uses radians

	int free = alt_up_audio_write_fifo_space(audio, ALT_UP_AUDIO_RIGHT);
  8009a0:	d1270817 	ldw	r4,-25568(gp)
  8009a4:	01400044 	movi	r5,1
  8009a8:	08135f80 	call	8135f8 <alt_up_audio_write_fifo_space>
  8009ac:	e0bff715 	stw	r2,-36(fp)
	printf("%d words free in right FIFO\n", free);
  8009b0:	010020b4 	movhi	r4,130
  8009b4:	212de104 	addi	r4,r4,-18556
  8009b8:	e17ff717 	ldw	r5,-36(fp)
  8009bc:	08096040 	call	809604 <printf>
  8009c0:	00000006 	br	8009c4 <audioTest+0x16c>

	for (;;) {
		free = alt_up_audio_write_fifo_space(audio, ALT_UP_AUDIO_RIGHT);
  8009c4:	d1270817 	ldw	r4,-25568(gp)
  8009c8:	01400044 	movi	r5,1
  8009cc:	08135f80 	call	8135f8 <alt_up_audio_write_fifo_space>
  8009d0:	e0bff715 	stw	r2,-36(fp)
		//printf("%d words free in right FIFO\n", free);
		if (free >= length) {
  8009d4:	e0fff717 	ldw	r3,-36(fp)
  8009d8:	e0bffb17 	ldw	r2,-20(fp)
  8009dc:	18bff916 	blt	r3,r2,8009c4 <audioTest+0x16c>
			//printf("Playing audio\n");
			playAudio(leftBuffer, length, rightBuffer, length);
  8009e0:	e13ff817 	ldw	r4,-32(fp)
  8009e4:	e17ffb17 	ldw	r5,-20(fp)
  8009e8:	e1bff917 	ldw	r6,-28(fp)
  8009ec:	e1fffb17 	ldw	r7,-20(fp)
  8009f0:	08007bc0 	call	8007bc <playAudio>
		}
	}
  8009f4:	003ff306 	br	8009c4 <audioTest+0x16c>

008009f8 <readWavFile>:
}

void readWavFile(char *wavFileName, unsigned int fileWordLength) {
  8009f8:	defff904 	addi	sp,sp,-28
  8009fc:	dfc00615 	stw	ra,24(sp)
  800a00:	df000515 	stw	fp,20(sp)
  800a04:	df000504 	addi	fp,sp,20
  800a08:	e13ffe15 	stw	r4,-8(fp)
  800a0c:	e17fff15 	stw	r5,-4(fp)
	audioBuffer = malloc(sizeof(unsigned int) * fileWordLength);
  800a10:	e0bfff17 	ldw	r2,-4(fp)
  800a14:	1085883a 	add	r2,r2,r2
  800a18:	1085883a 	add	r2,r2,r2
  800a1c:	1009883a 	mov	r4,r2
  800a20:	0808eb00 	call	808eb0 <malloc>
  800a24:	d0a70b15 	stw	r2,-25556(gp)
	audioVolumeBuffer = malloc(sizeof(unsigned int) * fileWordLength);
  800a28:	e0bfff17 	ldw	r2,-4(fp)
  800a2c:	1085883a 	add	r2,r2,r2
  800a30:	1085883a 	add	r2,r2,r2
  800a34:	1009883a 	mov	r4,r2
  800a38:	0808eb00 	call	808eb0 <malloc>
  800a3c:	d0a70c15 	stw	r2,-25552(gp)
	if (audioBuffer == NULL || audioVolumeBuffer == NULL) {
  800a40:	d0a70b17 	ldw	r2,-25556(gp)
  800a44:	1005003a 	cmpeq	r2,r2,zero
  800a48:	1000031e 	bne	r2,zero,800a58 <readWavFile+0x60>
  800a4c:	d0a70c17 	ldw	r2,-25552(gp)
  800a50:	1004c03a 	cmpne	r2,r2,zero
  800a54:	1000031e 	bne	r2,zero,800a64 <readWavFile+0x6c>
		printf("Error: insufficient memory to load audio file into memory.\n");
  800a58:	010020b4 	movhi	r4,130
  800a5c:	212de904 	addi	r4,r4,-18524
  800a60:	080971c0 	call	80971c <puts>
	}

	short int fileHandle = openFile(wavFileName);
  800a64:	e13ffe17 	ldw	r4,-8(fp)
  800a68:	080430c0 	call	80430c <openFile>
  800a6c:	e0bffd0d 	sth	r2,-12(fp)
	if (fileHandle == -1) {
  800a70:	e0bffd0f 	ldh	r2,-12(fp)
  800a74:	10bfffd8 	cmpnei	r2,r2,-1
  800a78:	1000051e 	bne	r2,zero,800a90 <readWavFile+0x98>
		printf("Error opening %s\n", wavFileName);
  800a7c:	010020b4 	movhi	r4,130
  800a80:	212df804 	addi	r4,r4,-18464
  800a84:	e17ffe17 	ldw	r5,-8(fp)
  800a88:	08096040 	call	809604 <printf>
		return;
  800a8c:	00002206 	br	800b18 <readWavFile+0x120>
	}

	readPastWavHeader(fileHandle);
  800a90:	e13ffd0f 	ldh	r4,-12(fp)
  800a94:	08045d00 	call	8045d0 <readPastWavHeader>

	unsigned int i;
	unsigned int word;
	for (i = 0; i < fileWordLength; i++) {
  800a98:	e03ffc15 	stw	zero,-16(fp)
  800a9c:	00001906 	br	800b04 <readWavFile+0x10c>
		word = readWord(fileHandle);
  800aa0:	e13ffd0f 	ldh	r4,-12(fp)
  800aa4:	08043b00 	call	8043b0 <readWord>
  800aa8:	10bfffcc 	andi	r2,r2,65535
  800aac:	10a0001c 	xori	r2,r2,32768
  800ab0:	10a00004 	addi	r2,r2,-32768
  800ab4:	e0bffb15 	stw	r2,-20(fp)
		audioBuffer[i] = word;
  800ab8:	e0bffc17 	ldw	r2,-16(fp)
  800abc:	1085883a 	add	r2,r2,r2
  800ac0:	1085883a 	add	r2,r2,r2
  800ac4:	1007883a 	mov	r3,r2
  800ac8:	d0a70b17 	ldw	r2,-25556(gp)
  800acc:	1887883a 	add	r3,r3,r2
  800ad0:	e0bffb17 	ldw	r2,-20(fp)
  800ad4:	18800015 	stw	r2,0(r3)
		audioVolumeBuffer[i] = word;
  800ad8:	e0bffc17 	ldw	r2,-16(fp)
  800adc:	1085883a 	add	r2,r2,r2
  800ae0:	1085883a 	add	r2,r2,r2
  800ae4:	1007883a 	mov	r3,r2
  800ae8:	d0a70c17 	ldw	r2,-25552(gp)
  800aec:	1887883a 	add	r3,r3,r2
  800af0:	e0bffb17 	ldw	r2,-20(fp)
  800af4:	18800015 	stw	r2,0(r3)

	readPastWavHeader(fileHandle);

	unsigned int i;
	unsigned int word;
	for (i = 0; i < fileWordLength; i++) {
  800af8:	e0bffc17 	ldw	r2,-16(fp)
  800afc:	10800044 	addi	r2,r2,1
  800b00:	e0bffc15 	stw	r2,-16(fp)
  800b04:	e0fffc17 	ldw	r3,-16(fp)
  800b08:	e0bfff17 	ldw	r2,-4(fp)
  800b0c:	18bfe436 	bltu	r3,r2,800aa0 <readWavFile+0xa8>
		audioVolumeBuffer[i] = word;
		//printf("0x%x ", (int)word > 0 ? word : -1 * word);
	}
	//printf("reached EOF\n");

	closeFile(fileHandle);
  800b10:	e13ffd0f 	ldh	r4,-12(fp)
  800b14:	080434c0 	call	80434c <closeFile>
	return;
}
  800b18:	e037883a 	mov	sp,fp
  800b1c:	dfc00117 	ldw	ra,4(sp)
  800b20:	df000017 	ldw	fp,0(sp)
  800b24:	dec00204 	addi	sp,sp,8
  800b28:	f800283a 	ret

00800b2c <playLaser>:

// Plays laser once, using interrupts
void playLaser(void) {
  800b2c:	defffe04 	addi	sp,sp,-8
  800b30:	dfc00115 	stw	ra,4(sp)
  800b34:	df000015 	stw	fp,0(sp)
  800b38:	d839883a 	mov	fp,sp
	if (DEBUG == 1) {
  800b3c:	d0a70a17 	ldw	r2,-25560(gp)
  800b40:	10800058 	cmpnei	r2,r2,1
  800b44:	1000031e 	bne	r2,zero,800b54 <playLaser+0x28>
		printf("Playing laser via interrupt.\n");
  800b48:	010020b4 	movhi	r4,130
  800b4c:	212dfd04 	addi	r4,r4,-18444
  800b50:	080971c0 	call	80971c <puts>
	}
	loadLaser();
  800b54:	08003f80 	call	8003f8 <loadLaser>
	status = LASER;
  800b58:	00800044 	movi	r2,1
  800b5c:	d0a7130d 	sth	r2,-25524(gp)
	playCursor = audioVolumeBuffer;
  800b60:	d0a70c17 	ldw	r2,-25552(gp)
  800b64:	d0a71215 	stw	r2,-25528(gp)
	playedWords = 0;
  800b68:	d0271115 	stw	zero,-25532(gp)
	alt_up_audio_enable_write_interrupt(audio);
  800b6c:	d1270817 	ldw	r4,-25568(gp)
  800b70:	081330c0 	call	81330c <alt_up_audio_enable_write_interrupt>
}
  800b74:	e037883a 	mov	sp,fp
  800b78:	dfc00117 	ldw	ra,4(sp)
  800b7c:	df000017 	ldw	fp,0(sp)
  800b80:	dec00204 	addi	sp,sp,8
  800b84:	f800283a 	ret

00800b88 <playPlayerDeath>:

void playPlayerDeath(void) {
  800b88:	defffe04 	addi	sp,sp,-8
  800b8c:	dfc00115 	stw	ra,4(sp)
  800b90:	df000015 	stw	fp,0(sp)
  800b94:	d839883a 	mov	fp,sp
	loadPlayerDeath();
  800b98:	08004c40 	call	8004c4 <loadPlayerDeath>
	status = PLAYER_DEATH;
  800b9c:	00800084 	movi	r2,2
  800ba0:	d0a7130d 	sth	r2,-25524(gp)
	playCursor = audioVolumeBuffer;
  800ba4:	d0a70c17 	ldw	r2,-25552(gp)
  800ba8:	d0a71215 	stw	r2,-25528(gp)
	playedWords = 0;
  800bac:	d0271115 	stw	zero,-25532(gp)
	alt_up_audio_enable_write_interrupt(audio);
  800bb0:	d1270817 	ldw	r4,-25568(gp)
  800bb4:	081330c0 	call	81330c <alt_up_audio_enable_write_interrupt>
}
  800bb8:	e037883a 	mov	sp,fp
  800bbc:	dfc00117 	ldw	ra,4(sp)
  800bc0:	df000017 	ldw	fp,0(sp)
  800bc4:	dec00204 	addi	sp,sp,8
  800bc8:	f800283a 	ret

00800bcc <playSharkDeath>:

void playSharkDeath(void) {
  800bcc:	defffe04 	addi	sp,sp,-8
  800bd0:	dfc00115 	stw	ra,4(sp)
  800bd4:	df000015 	stw	fp,0(sp)
  800bd8:	d839883a 	mov	fp,sp
	loadSharkDeath();
  800bdc:	08005900 	call	800590 <loadSharkDeath>
	status = SHARK_DEATH;
  800be0:	008000c4 	movi	r2,3
  800be4:	d0a7130d 	sth	r2,-25524(gp)
	playCursor = audioVolumeBuffer;
  800be8:	d0a70c17 	ldw	r2,-25552(gp)
  800bec:	d0a71215 	stw	r2,-25528(gp)
	playedWords = 0;
  800bf0:	d0271115 	stw	zero,-25532(gp)
	alt_up_audio_enable_write_interrupt(audio);
  800bf4:	d1270817 	ldw	r4,-25568(gp)
  800bf8:	081330c0 	call	81330c <alt_up_audio_enable_write_interrupt>
}
  800bfc:	e037883a 	mov	sp,fp
  800c00:	dfc00117 	ldw	ra,4(sp)
  800c04:	df000017 	ldw	fp,0(sp)
  800c08:	dec00204 	addi	sp,sp,8
  800c0c:	f800283a 	ret

00800c10 <playTheme>:

void playTheme(void) {
  800c10:	defffe04 	addi	sp,sp,-8
  800c14:	dfc00115 	stw	ra,4(sp)
  800c18:	df000015 	stw	fp,0(sp)
  800c1c:	d839883a 	mov	fp,sp
	loadTheme();
  800c20:	080065c0 	call	80065c <loadTheme>
	status = THEME;
  800c24:	00800104 	movi	r2,4
  800c28:	d0a7130d 	sth	r2,-25524(gp)
	playCursor = audioVolumeBuffer;
  800c2c:	d0a70c17 	ldw	r2,-25552(gp)
  800c30:	d0a71215 	stw	r2,-25528(gp)
	playedWords = 0;
  800c34:	d0271115 	stw	zero,-25532(gp)
	alt_up_audio_enable_write_interrupt(audio);
  800c38:	d1270817 	ldw	r4,-25568(gp)
  800c3c:	081330c0 	call	81330c <alt_up_audio_enable_write_interrupt>
}
  800c40:	e037883a 	mov	sp,fp
  800c44:	dfc00117 	ldw	ra,4(sp)
  800c48:	df000017 	ldw	fp,0(sp)
  800c4c:	dec00204 	addi	sp,sp,8
  800c50:	f800283a 	ret

00800c54 <playSoundISR>:

#ifdef ALT_ENHANCED_INTERRUPT_API_PRESENT
static void playSoundISR(void* isr_context) {
#else
static void playSoundISR(void* isr_context, alt_u32 id) {
  800c54:	defff704 	addi	sp,sp,-36
  800c58:	dfc00815 	stw	ra,32(sp)
  800c5c:	df000715 	stw	fp,28(sp)
  800c60:	df000704 	addi	fp,sp,28
  800c64:	e13ffc15 	stw	r4,-16(fp)
  800c68:	e17ffd15 	stw	r5,-12(fp)
#endif
	if (status == NONE) {
  800c6c:	d0a7130b 	ldhu	r2,-25524(gp)
  800c70:	10bfffcc 	andi	r2,r2,65535
  800c74:	10a0001c 	xori	r2,r2,32768
  800c78:	10a00004 	addi	r2,r2,-32768
  800c7c:	1004c03a 	cmpne	r2,r2,zero
  800c80:	1000031e 	bne	r2,zero,800c90 <playSoundISR+0x3c>
		alt_up_audio_disable_write_interrupt(audio);
  800c84:	d1270817 	ldw	r4,-25568(gp)
  800c88:	08133580 	call	813358 <alt_up_audio_disable_write_interrupt>
		return;
  800c8c:	00003d06 	br	800d84 <playSoundISR+0x130>
	}
	int len;
	unsigned int free = alt_up_audio_write_fifo_space(audio, ALT_UP_AUDIO_LEFT);
  800c90:	d1270817 	ldw	r4,-25568(gp)
  800c94:	000b883a 	mov	r5,zero
  800c98:	08135f80 	call	8135f8 <alt_up_audio_write_fifo_space>
  800c9c:	e0bffa15 	stw	r2,-24(fp)
	unsigned end = (unsigned)(audioVolumeBuffer) + (2 * audioFileWordLength);
  800ca0:	d0a70e17 	ldw	r2,-25544(gp)
  800ca4:	1085883a 	add	r2,r2,r2
  800ca8:	1007883a 	mov	r3,r2
  800cac:	d0a70c17 	ldw	r2,-25552(gp)
  800cb0:	1885883a 	add	r2,r3,r2
  800cb4:	e0bff915 	stw	r2,-28(fp)
	if (free >= 1) {
  800cb8:	e0bffa17 	ldw	r2,-24(fp)
  800cbc:	1005003a 	cmpeq	r2,r2,zero
  800cc0:	10002e1e 	bne	r2,zero,800d7c <playSoundISR+0x128>
		if (((int)playCursor + free >= end) ||
  800cc4:	d0a71217 	ldw	r2,-25528(gp)
  800cc8:	1007883a 	mov	r3,r2
  800ccc:	e0bffa17 	ldw	r2,-24(fp)
  800cd0:	1887883a 	add	r3,r3,r2
  800cd4:	e0bff917 	ldw	r2,-28(fp)
  800cd8:	1880052e 	bgeu	r3,r2,800cf0 <playSoundISR+0x9c>
  800cdc:	d0e71117 	ldw	r3,-25532(gp)
  800ce0:	e0bffa17 	ldw	r2,-24(fp)
  800ce4:	1887883a 	add	r3,r3,r2
  800ce8:	d0a70e17 	ldw	r2,-25544(gp)
  800cec:	18800836 	bltu	r3,r2,800d10 <playSoundISR+0xbc>
			 (playedWords + free) >= audioFileWordLength) {
			// Last chunk to play
			len = end - (int)playCursor;
  800cf0:	d0a71217 	ldw	r2,-25528(gp)
  800cf4:	1007883a 	mov	r3,r2
  800cf8:	e0bff917 	ldw	r2,-28(fp)
  800cfc:	10c5c83a 	sub	r2,r2,r3
  800d00:	e0bffb15 	stw	r2,-20(fp)
			alt_up_audio_disable_write_interrupt(audio);
  800d04:	d1270817 	ldw	r4,-25568(gp)
  800d08:	08133580 	call	813358 <alt_up_audio_disable_write_interrupt>
	}
	int len;
	unsigned int free = alt_up_audio_write_fifo_space(audio, ALT_UP_AUDIO_LEFT);
	unsigned end = (unsigned)(audioVolumeBuffer) + (2 * audioFileWordLength);
	if (free >= 1) {
		if (((int)playCursor + free >= end) ||
  800d0c:	00000206 	br	800d18 <playSoundISR+0xc4>
			 (playedWords + free) >= audioFileWordLength) {
			// Last chunk to play
			len = end - (int)playCursor;
			alt_up_audio_disable_write_interrupt(audio);
		} else {
			len = free;
  800d10:	e0bffa17 	ldw	r2,-24(fp)
  800d14:	e0bffb15 	stw	r2,-20(fp)
		}
		len = len > free ? free : len;
  800d18:	e0bffb17 	ldw	r2,-20(fp)
  800d1c:	e0fffa17 	ldw	r3,-24(fp)
  800d20:	e0ffff15 	stw	r3,-4(fp)
  800d24:	e0bffe15 	stw	r2,-8(fp)
  800d28:	e0bfff17 	ldw	r2,-4(fp)
  800d2c:	e0fffe17 	ldw	r3,-8(fp)
  800d30:	10c0022e 	bgeu	r2,r3,800d3c <playSoundISR+0xe8>
  800d34:	e0bfff17 	ldw	r2,-4(fp)
  800d38:	e0bffe15 	stw	r2,-8(fp)
  800d3c:	e0fffe17 	ldw	r3,-8(fp)
  800d40:	e0fffb15 	stw	r3,-20(fp)
		playAudioMono(len);
  800d44:	e13ffb17 	ldw	r4,-20(fp)
  800d48:	080072c0 	call	80072c <playAudioMono>
		playedWords += len;
  800d4c:	d0e71117 	ldw	r3,-25532(gp)
  800d50:	e0bffb17 	ldw	r2,-20(fp)
  800d54:	1885883a 	add	r2,r3,r2
  800d58:	d0a71115 	stw	r2,-25532(gp)
		playCursor += len;
  800d5c:	e0bffb17 	ldw	r2,-20(fp)
  800d60:	1085883a 	add	r2,r2,r2
  800d64:	1085883a 	add	r2,r2,r2
  800d68:	1007883a 	mov	r3,r2
  800d6c:	d0a71217 	ldw	r2,-25528(gp)
  800d70:	1885883a 	add	r2,r3,r2
  800d74:	d0a71215 	stw	r2,-25528(gp)
  800d78:	00000206 	br	800d84 <playSoundISR+0x130>
	} else {
		// Interrupt should not be triggered if there is no space
		alt_up_audio_disable_write_interrupt(audio);
  800d7c:	d1270817 	ldw	r4,-25568(gp)
  800d80:	08133580 	call	813358 <alt_up_audio_disable_write_interrupt>
	}
}
  800d84:	e037883a 	mov	sp,fp
  800d88:	dfc00117 	ldw	ra,4(sp)
  800d8c:	df000017 	ldw	fp,0(sp)
  800d90:	dec00204 	addi	sp,sp,8
  800d94:	f800283a 	ret

00800d98 <updateAudioWithVolume>:

void updateAudioWithVolume(char switchValues) {
  800d98:	defffd04 	addi	sp,sp,-12
  800d9c:	dfc00215 	stw	ra,8(sp)
  800da0:	df000115 	stw	fp,4(sp)
  800da4:	df000104 	addi	fp,sp,4
  800da8:	e13fff05 	stb	r4,-4(fp)

	if (laser.mainBuffer != NULL && laser.volumeBuffer != NULL){
  800dac:	008020b4 	movhi	r2,130
  800db0:	10bf9504 	addi	r2,r2,-428
  800db4:	10800017 	ldw	r2,0(r2)
  800db8:	1005003a 	cmpeq	r2,r2,zero
  800dbc:	10000c1e 	bne	r2,zero,800df0 <updateAudioWithVolume+0x58>
  800dc0:	008020b4 	movhi	r2,130
  800dc4:	10bf9504 	addi	r2,r2,-428
  800dc8:	10800117 	ldw	r2,4(r2)
  800dcc:	1005003a 	cmpeq	r2,r2,zero
  800dd0:	1000071e 	bne	r2,zero,800df0 <updateAudioWithVolume+0x58>
		changeBufferVolume(laser, switchValues);
  800dd4:	e1ffff07 	ldb	r7,-4(fp)
  800dd8:	008020b4 	movhi	r2,130
  800ddc:	10bf9504 	addi	r2,r2,-428
  800de0:	11000017 	ldw	r4,0(r2)
  800de4:	11400117 	ldw	r5,4(r2)
  800de8:	11800217 	ldw	r6,8(r2)
  800dec:	0800ed00 	call	800ed0 <changeBufferVolume>
	}
	if (playerDeath.mainBuffer != NULL && playerDeath.volumeBuffer != NULL){
  800df0:	008020b4 	movhi	r2,130
  800df4:	10bf9b04 	addi	r2,r2,-404
  800df8:	10800017 	ldw	r2,0(r2)
  800dfc:	1005003a 	cmpeq	r2,r2,zero
  800e00:	10000c1e 	bne	r2,zero,800e34 <updateAudioWithVolume+0x9c>
  800e04:	008020b4 	movhi	r2,130
  800e08:	10bf9b04 	addi	r2,r2,-404
  800e0c:	10800117 	ldw	r2,4(r2)
  800e10:	1005003a 	cmpeq	r2,r2,zero
  800e14:	1000071e 	bne	r2,zero,800e34 <updateAudioWithVolume+0x9c>
		changeBufferVolume(playerDeath, switchValues);
  800e18:	e1ffff07 	ldb	r7,-4(fp)
  800e1c:	008020b4 	movhi	r2,130
  800e20:	10bf9b04 	addi	r2,r2,-404
  800e24:	11000017 	ldw	r4,0(r2)
  800e28:	11400117 	ldw	r5,4(r2)
  800e2c:	11800217 	ldw	r6,8(r2)
  800e30:	0800ed00 	call	800ed0 <changeBufferVolume>
	}
	if (sharkDeath.mainBuffer != NULL && sharkDeath.volumeBuffer != NULL) {
  800e34:	008020b4 	movhi	r2,130
  800e38:	10bf9204 	addi	r2,r2,-440
  800e3c:	10800017 	ldw	r2,0(r2)
  800e40:	1005003a 	cmpeq	r2,r2,zero
  800e44:	10000c1e 	bne	r2,zero,800e78 <updateAudioWithVolume+0xe0>
  800e48:	008020b4 	movhi	r2,130
  800e4c:	10bf9204 	addi	r2,r2,-440
  800e50:	10800117 	ldw	r2,4(r2)
  800e54:	1005003a 	cmpeq	r2,r2,zero
  800e58:	1000071e 	bne	r2,zero,800e78 <updateAudioWithVolume+0xe0>
		changeBufferVolume(sharkDeath, switchValues);
  800e5c:	e1ffff07 	ldb	r7,-4(fp)
  800e60:	008020b4 	movhi	r2,130
  800e64:	10bf9204 	addi	r2,r2,-440
  800e68:	11000017 	ldw	r4,0(r2)
  800e6c:	11400117 	ldw	r5,4(r2)
  800e70:	11800217 	ldw	r6,8(r2)
  800e74:	0800ed00 	call	800ed0 <changeBufferVolume>
	}
	if (theme.mainBuffer != NULL && theme.volumeBuffer != NULL) {
  800e78:	008020b4 	movhi	r2,130
  800e7c:	10bf9804 	addi	r2,r2,-416
  800e80:	10800017 	ldw	r2,0(r2)
  800e84:	1005003a 	cmpeq	r2,r2,zero
  800e88:	10000c1e 	bne	r2,zero,800ebc <updateAudioWithVolume+0x124>
  800e8c:	008020b4 	movhi	r2,130
  800e90:	10bf9804 	addi	r2,r2,-416
  800e94:	10800117 	ldw	r2,4(r2)
  800e98:	1005003a 	cmpeq	r2,r2,zero
  800e9c:	1000071e 	bne	r2,zero,800ebc <updateAudioWithVolume+0x124>
		changeBufferVolume(theme, switchValues);
  800ea0:	e1ffff07 	ldb	r7,-4(fp)
  800ea4:	008020b4 	movhi	r2,130
  800ea8:	10bf9804 	addi	r2,r2,-416
  800eac:	11000017 	ldw	r4,0(r2)
  800eb0:	11400117 	ldw	r5,4(r2)
  800eb4:	11800217 	ldw	r6,8(r2)
  800eb8:	0800ed00 	call	800ed0 <changeBufferVolume>
	}

	return;
}
  800ebc:	e037883a 	mov	sp,fp
  800ec0:	dfc00117 	ldw	ra,4(sp)
  800ec4:	df000017 	ldw	fp,0(sp)
  800ec8:	dec00204 	addi	sp,sp,8
  800ecc:	f800283a 	ret

00800ed0 <changeBufferVolume>:

void changeBufferVolume(struct audioInfo currentAudioInfo, char switchValues) {
  800ed0:	defff704 	addi	sp,sp,-36
  800ed4:	dfc00815 	stw	ra,32(sp)
  800ed8:	df000715 	stw	fp,28(sp)
  800edc:	df000704 	addi	fp,sp,28
  800ee0:	e13ffc15 	stw	r4,-16(fp)
  800ee4:	e17ffd15 	stw	r5,-12(fp)
  800ee8:	e1bffe15 	stw	r6,-8(fp)
  800eec:	e1ffff05 	stb	r7,-4(fp)
	int i;
	short volumeKeys = switchValues & 0x0F;
  800ef0:	e0bfff03 	ldbu	r2,-4(fp)
  800ef4:	10803fcc 	andi	r2,r2,255
  800ef8:	108003cc 	andi	r2,r2,15
  800efc:	e0bffa0d 	sth	r2,-24(fp)
	if(volumeKeys == 0x00 || volumeKeys == 0x01) {
  800f00:	e0bffa0f 	ldh	r2,-24(fp)
  800f04:	1005003a 	cmpeq	r2,r2,zero
  800f08:	1000031e 	bne	r2,zero,800f18 <changeBufferVolume+0x48>
  800f0c:	e0bffa0f 	ldh	r2,-24(fp)
  800f10:	10800058 	cmpnei	r2,r2,1
  800f14:	10001b1e 	bne	r2,zero,800f84 <changeBufferVolume+0xb4>
		short shiftLength = 2 - volumeKeys;
  800f18:	e0fffa0b 	ldhu	r3,-24(fp)
  800f1c:	00800084 	movi	r2,2
  800f20:	10c5c83a 	sub	r2,r2,r3
  800f24:	e0bff98d 	sth	r2,-26(fp)
		for(i = 0; i < currentAudioInfo.bufferLength; i++) {
  800f28:	e03ffb15 	stw	zero,-20(fp)
  800f2c:	00001106 	br	800f74 <changeBufferVolume+0xa4>
			*(currentAudioInfo.volumeBuffer + i) = *(currentAudioInfo.mainBuffer + i) >> shiftLength;
  800f30:	e0fffd17 	ldw	r3,-12(fp)
  800f34:	e0bffb17 	ldw	r2,-20(fp)
  800f38:	1085883a 	add	r2,r2,r2
  800f3c:	1085883a 	add	r2,r2,r2
  800f40:	1889883a 	add	r4,r3,r2
  800f44:	e0fffc17 	ldw	r3,-16(fp)
  800f48:	e0bffb17 	ldw	r2,-20(fp)
  800f4c:	1085883a 	add	r2,r2,r2
  800f50:	1085883a 	add	r2,r2,r2
  800f54:	1885883a 	add	r2,r3,r2
  800f58:	10c00017 	ldw	r3,0(r2)
  800f5c:	e0bff98f 	ldh	r2,-26(fp)
  800f60:	1884d83a 	srl	r2,r3,r2
  800f64:	20800015 	stw	r2,0(r4)
void changeBufferVolume(struct audioInfo currentAudioInfo, char switchValues) {
	int i;
	short volumeKeys = switchValues & 0x0F;
	if(volumeKeys == 0x00 || volumeKeys == 0x01) {
		short shiftLength = 2 - volumeKeys;
		for(i = 0; i < currentAudioInfo.bufferLength; i++) {
  800f68:	e0bffb17 	ldw	r2,-20(fp)
  800f6c:	10800044 	addi	r2,r2,1
  800f70:	e0bffb15 	stw	r2,-20(fp)
  800f74:	e0fffb17 	ldw	r3,-20(fp)
  800f78:	e0bffe17 	ldw	r2,-8(fp)
  800f7c:	18bfec36 	bltu	r3,r2,800f30 <changeBufferVolume+0x60>
}

void changeBufferVolume(struct audioInfo currentAudioInfo, char switchValues) {
	int i;
	short volumeKeys = switchValues & 0x0F;
	if(volumeKeys == 0x00 || volumeKeys == 0x01) {
  800f80:	00004806 	br	8010a4 <changeBufferVolume+0x1d4>
		short shiftLength = 2 - volumeKeys;
		for(i = 0; i < currentAudioInfo.bufferLength; i++) {
			*(currentAudioInfo.volumeBuffer + i) = *(currentAudioInfo.mainBuffer + i) >> shiftLength;
		}
	} else if(volumeKeys == 0x07 || volumeKeys == 0x0F) {
  800f84:	e0bffa0f 	ldh	r2,-24(fp)
  800f88:	108001e0 	cmpeqi	r2,r2,7
  800f8c:	1000031e 	bne	r2,zero,800f9c <changeBufferVolume+0xcc>
  800f90:	e0bffa0f 	ldh	r2,-24(fp)
  800f94:	108003d8 	cmpnei	r2,r2,15
  800f98:	10001c1e 	bne	r2,zero,80100c <changeBufferVolume+0x13c>
		short shiftLength = (volumeKeys % 7) + 1;
  800f9c:	e13ffa0f 	ldh	r4,-24(fp)
  800fa0:	014001c4 	movi	r5,7
  800fa4:	08085c80 	call	8085c8 <__modsi3>
  800fa8:	10800044 	addi	r2,r2,1
  800fac:	e0bff90d 	sth	r2,-28(fp)
		for(i = 0; i < currentAudioInfo.bufferLength; i++) {
  800fb0:	e03ffb15 	stw	zero,-20(fp)
  800fb4:	00001106 	br	800ffc <changeBufferVolume+0x12c>
			*(currentAudioInfo.volumeBuffer + i) = *(currentAudioInfo.mainBuffer + i) << shiftLength;
  800fb8:	e0fffd17 	ldw	r3,-12(fp)
  800fbc:	e0bffb17 	ldw	r2,-20(fp)
  800fc0:	1085883a 	add	r2,r2,r2
  800fc4:	1085883a 	add	r2,r2,r2
  800fc8:	1889883a 	add	r4,r3,r2
  800fcc:	e0fffc17 	ldw	r3,-16(fp)
  800fd0:	e0bffb17 	ldw	r2,-20(fp)
  800fd4:	1085883a 	add	r2,r2,r2
  800fd8:	1085883a 	add	r2,r2,r2
  800fdc:	1885883a 	add	r2,r3,r2
  800fe0:	10c00017 	ldw	r3,0(r2)
  800fe4:	e0bff90f 	ldh	r2,-28(fp)
  800fe8:	1884983a 	sll	r2,r3,r2
  800fec:	20800015 	stw	r2,0(r4)
		for(i = 0; i < currentAudioInfo.bufferLength; i++) {
			*(currentAudioInfo.volumeBuffer + i) = *(currentAudioInfo.mainBuffer + i) >> shiftLength;
		}
	} else if(volumeKeys == 0x07 || volumeKeys == 0x0F) {
		short shiftLength = (volumeKeys % 7) + 1;
		for(i = 0; i < currentAudioInfo.bufferLength; i++) {
  800ff0:	e0bffb17 	ldw	r2,-20(fp)
  800ff4:	10800044 	addi	r2,r2,1
  800ff8:	e0bffb15 	stw	r2,-20(fp)
  800ffc:	e0fffb17 	ldw	r3,-20(fp)
  801000:	e0bffe17 	ldw	r2,-8(fp)
  801004:	18bfec36 	bltu	r3,r2,800fb8 <changeBufferVolume+0xe8>
	if(volumeKeys == 0x00 || volumeKeys == 0x01) {
		short shiftLength = 2 - volumeKeys;
		for(i = 0; i < currentAudioInfo.bufferLength; i++) {
			*(currentAudioInfo.volumeBuffer + i) = *(currentAudioInfo.mainBuffer + i) >> shiftLength;
		}
	} else if(volumeKeys == 0x07 || volumeKeys == 0x0F) {
  801008:	00002606 	br	8010a4 <changeBufferVolume+0x1d4>
		short shiftLength = (volumeKeys % 7) + 1;
		for(i = 0; i < currentAudioInfo.bufferLength; i++) {
			*(currentAudioInfo.volumeBuffer + i) = *(currentAudioInfo.mainBuffer + i) << shiftLength;
		}
	} else if(volumeKeys == 0x03) {
  80100c:	e0bffa0f 	ldh	r2,-24(fp)
  801010:	108000d8 	cmpnei	r2,r2,3
  801014:	1000151e 	bne	r2,zero,80106c <changeBufferVolume+0x19c>
		for(i = 0; i < currentAudioInfo.bufferLength; i++) {
  801018:	e03ffb15 	stw	zero,-20(fp)
  80101c:	00000f06 	br	80105c <changeBufferVolume+0x18c>
			*(currentAudioInfo.volumeBuffer + i) = *(currentAudioInfo.mainBuffer + i);
  801020:	e0fffd17 	ldw	r3,-12(fp)
  801024:	e0bffb17 	ldw	r2,-20(fp)
  801028:	1085883a 	add	r2,r2,r2
  80102c:	1085883a 	add	r2,r2,r2
  801030:	1887883a 	add	r3,r3,r2
  801034:	e13ffc17 	ldw	r4,-16(fp)
  801038:	e0bffb17 	ldw	r2,-20(fp)
  80103c:	1085883a 	add	r2,r2,r2
  801040:	1085883a 	add	r2,r2,r2
  801044:	2085883a 	add	r2,r4,r2
  801048:	10800017 	ldw	r2,0(r2)
  80104c:	18800015 	stw	r2,0(r3)
		short shiftLength = (volumeKeys % 7) + 1;
		for(i = 0; i < currentAudioInfo.bufferLength; i++) {
			*(currentAudioInfo.volumeBuffer + i) = *(currentAudioInfo.mainBuffer + i) << shiftLength;
		}
	} else if(volumeKeys == 0x03) {
		for(i = 0; i < currentAudioInfo.bufferLength; i++) {
  801050:	e0bffb17 	ldw	r2,-20(fp)
  801054:	10800044 	addi	r2,r2,1
  801058:	e0bffb15 	stw	r2,-20(fp)
  80105c:	e0fffb17 	ldw	r3,-20(fp)
  801060:	e0bffe17 	ldw	r2,-8(fp)
  801064:	18bfee36 	bltu	r3,r2,801020 <changeBufferVolume+0x150>
  801068:	00000e06 	br	8010a4 <changeBufferVolume+0x1d4>
			*(currentAudioInfo.volumeBuffer + i) = *(currentAudioInfo.mainBuffer + i);
		}
	} else {
		for(i = 0; i < currentAudioInfo.bufferLength; i++) {
  80106c:	e03ffb15 	stw	zero,-20(fp)
  801070:	00000906 	br	801098 <changeBufferVolume+0x1c8>
			*(currentAudioInfo.volumeBuffer + i) = 0; //mute on all other combos
  801074:	e0fffd17 	ldw	r3,-12(fp)
  801078:	e0bffb17 	ldw	r2,-20(fp)
  80107c:	1085883a 	add	r2,r2,r2
  801080:	1085883a 	add	r2,r2,r2
  801084:	1885883a 	add	r2,r3,r2
  801088:	10000015 	stw	zero,0(r2)
	} else if(volumeKeys == 0x03) {
		for(i = 0; i < currentAudioInfo.bufferLength; i++) {
			*(currentAudioInfo.volumeBuffer + i) = *(currentAudioInfo.mainBuffer + i);
		}
	} else {
		for(i = 0; i < currentAudioInfo.bufferLength; i++) {
  80108c:	e0bffb17 	ldw	r2,-20(fp)
  801090:	10800044 	addi	r2,r2,1
  801094:	e0bffb15 	stw	r2,-20(fp)
  801098:	e0fffb17 	ldw	r3,-20(fp)
  80109c:	e0bffe17 	ldw	r2,-8(fp)
  8010a0:	18bff436 	bltu	r3,r2,801074 <changeBufferVolume+0x1a4>
			*(currentAudioInfo.volumeBuffer + i) = 0; //mute on all other combos
		}
	}

	return;
}
  8010a4:	e037883a 	mov	sp,fp
  8010a8:	dfc00117 	ldw	ra,4(sp)
  8010ac:	df000017 	ldw	fp,0(sp)
  8010b0:	dec00204 	addi	sp,sp,8
  8010b4:	f800283a 	ret

008010b8 <parseBmp>:
#include "bmp.h"

void parseBmp (char *fileName, BMP *bmp) {
  8010b8:	defff304 	addi	sp,sp,-52
  8010bc:	dfc00c15 	stw	ra,48(sp)
  8010c0:	df000b15 	stw	fp,44(sp)
  8010c4:	dc000a15 	stw	r16,40(sp)
  8010c8:	df000a04 	addi	fp,sp,40
  8010cc:	e13ffd15 	stw	r4,-12(fp)
  8010d0:	e17ffe15 	stw	r5,-8(fp)
	int i, j, k;
	int pixels, rowOffset, offset;
	short int fh;

	fh = openFile(fileName);
  8010d4:	e13ffd17 	ldw	r4,-12(fp)
  8010d8:	080430c0 	call	80430c <openFile>
  8010dc:	e0bff60d 	sth	r2,-40(fp)

	bmp->header.type = readWord(fh);
  8010e0:	e13ff60f 	ldh	r4,-40(fp)
  8010e4:	08043b00 	call	8043b0 <readWord>
  8010e8:	1007883a 	mov	r3,r2
  8010ec:	e0bffe17 	ldw	r2,-8(fp)
  8010f0:	10c0000d 	sth	r3,0(r2)
	bmp->header.size = readDWord(fh);
  8010f4:	e13ff60f 	ldh	r4,-40(fp)
  8010f8:	08044440 	call	804444 <readDWord>
  8010fc:	1007883a 	mov	r3,r2
  801100:	e0bffe17 	ldw	r2,-8(fp)
  801104:	10c00115 	stw	r3,4(r2)
	bmp->header.reserved1 = readWord(fh);
  801108:	e13ff60f 	ldh	r4,-40(fp)
  80110c:	08043b00 	call	8043b0 <readWord>
  801110:	1007883a 	mov	r3,r2
  801114:	e0bffe17 	ldw	r2,-8(fp)
  801118:	10c0020d 	sth	r3,8(r2)
	bmp->header.reserved2 = readWord(fh);
  80111c:	e13ff60f 	ldh	r4,-40(fp)
  801120:	08043b00 	call	8043b0 <readWord>
  801124:	1007883a 	mov	r3,r2
  801128:	e0bffe17 	ldw	r2,-8(fp)
  80112c:	10c0028d 	sth	r3,10(r2)
	bmp->header.offset = readDWord(fh);
  801130:	e13ff60f 	ldh	r4,-40(fp)
  801134:	08044440 	call	804444 <readDWord>
  801138:	1007883a 	mov	r3,r2
  80113c:	e0bffe17 	ldw	r2,-8(fp)
  801140:	10c00315 	stw	r3,12(r2)

	bmp->infoheader.size = readDWord(fh);
  801144:	e13ff60f 	ldh	r4,-40(fp)
  801148:	08044440 	call	804444 <readDWord>
  80114c:	1007883a 	mov	r3,r2
  801150:	e0bffe17 	ldw	r2,-8(fp)
  801154:	10c00415 	stw	r3,16(r2)
	bmp->infoheader.width = readDWord(fh);
  801158:	e13ff60f 	ldh	r4,-40(fp)
  80115c:	08044440 	call	804444 <readDWord>
  801160:	1007883a 	mov	r3,r2
  801164:	e0bffe17 	ldw	r2,-8(fp)
  801168:	10c00515 	stw	r3,20(r2)
	bmp->infoheader.height = readDWord(fh);
  80116c:	e13ff60f 	ldh	r4,-40(fp)
  801170:	08044440 	call	804444 <readDWord>
  801174:	1007883a 	mov	r3,r2
  801178:	e0bffe17 	ldw	r2,-8(fp)
  80117c:	10c00615 	stw	r3,24(r2)
	bmp->infoheader.planes = readWord(fh);
  801180:	e13ff60f 	ldh	r4,-40(fp)
  801184:	08043b00 	call	8043b0 <readWord>
  801188:	1007883a 	mov	r3,r2
  80118c:	e0bffe17 	ldw	r2,-8(fp)
  801190:	10c0070d 	sth	r3,28(r2)
	bmp->infoheader.bits = readWord(fh);
  801194:	e13ff60f 	ldh	r4,-40(fp)
  801198:	08043b00 	call	8043b0 <readWord>
  80119c:	1007883a 	mov	r3,r2
  8011a0:	e0bffe17 	ldw	r2,-8(fp)
  8011a4:	10c0078d 	sth	r3,30(r2)
	bmp->infoheader.compression = readDWord(fh);
  8011a8:	e13ff60f 	ldh	r4,-40(fp)
  8011ac:	08044440 	call	804444 <readDWord>
  8011b0:	1007883a 	mov	r3,r2
  8011b4:	e0bffe17 	ldw	r2,-8(fp)
  8011b8:	10c00815 	stw	r3,32(r2)
	bmp->infoheader.imagesize = readDWord(fh);
  8011bc:	e13ff60f 	ldh	r4,-40(fp)
  8011c0:	08044440 	call	804444 <readDWord>
  8011c4:	1007883a 	mov	r3,r2
  8011c8:	e0bffe17 	ldw	r2,-8(fp)
  8011cc:	10c00915 	stw	r3,36(r2)
	bmp->infoheader.xresolution = readDWord(fh);
  8011d0:	e13ff60f 	ldh	r4,-40(fp)
  8011d4:	08044440 	call	804444 <readDWord>
  8011d8:	1007883a 	mov	r3,r2
  8011dc:	e0bffe17 	ldw	r2,-8(fp)
  8011e0:	10c00a15 	stw	r3,40(r2)
	bmp->infoheader.yresolution = readDWord(fh);
  8011e4:	e13ff60f 	ldh	r4,-40(fp)
  8011e8:	08044440 	call	804444 <readDWord>
  8011ec:	1007883a 	mov	r3,r2
  8011f0:	e0bffe17 	ldw	r2,-8(fp)
  8011f4:	10c00b15 	stw	r3,44(r2)
	bmp->infoheader.ncolors = readDWord(fh);
  8011f8:	e13ff60f 	ldh	r4,-40(fp)
  8011fc:	08044440 	call	804444 <readDWord>
  801200:	1007883a 	mov	r3,r2
  801204:	e0bffe17 	ldw	r2,-8(fp)
  801208:	10c00c15 	stw	r3,48(r2)
	bmp->infoheader.importantcolors = readDWord(fh);
  80120c:	e13ff60f 	ldh	r4,-40(fp)
  801210:	08044440 	call	804444 <readDWord>
  801214:	1007883a 	mov	r3,r2
  801218:	e0bffe17 	ldw	r2,-8(fp)
  80121c:	10c00d15 	stw	r3,52(r2)

	pixels = bmp->infoheader.width * bmp->infoheader.height;
  801220:	e0bffe17 	ldw	r2,-8(fp)
  801224:	10c00517 	ldw	r3,20(r2)
  801228:	e0bffe17 	ldw	r2,-8(fp)
  80122c:	10800617 	ldw	r2,24(r2)
  801230:	1885383a 	mul	r2,r3,r2
  801234:	e0bff915 	stw	r2,-28(fp)
	bmp->rgb = malloc(BYTES_PER_PIXEL * pixels);
  801238:	e0fff917 	ldw	r3,-28(fp)
  80123c:	1805883a 	mov	r2,r3
  801240:	1085883a 	add	r2,r2,r2
  801244:	10c5883a 	add	r2,r2,r3
  801248:	1009883a 	mov	r4,r2
  80124c:	0808eb00 	call	808eb0 <malloc>
  801250:	1007883a 	mov	r3,r2
  801254:	e0bffe17 	ldw	r2,-8(fp)
  801258:	10c00e15 	stw	r3,56(r2)

	for(i = 0; i < bmp->infoheader.height; i++) {
  80125c:	e03ffc15 	stw	zero,-16(fp)
  801260:	00009a06 	br	8014cc <parseBmp+0x414>
		rowOffset = i*bmp->infoheader.width;
  801264:	e0bffe17 	ldw	r2,-8(fp)
  801268:	10c00517 	ldw	r3,20(r2)
  80126c:	e0bffc17 	ldw	r2,-16(fp)
  801270:	1885383a 	mul	r2,r3,r2
  801274:	e0bff815 	stw	r2,-32(fp)
		for(j = 0; j < bmp->infoheader.width; j++ ){
  801278:	e03ffb15 	stw	zero,-20(fp)
  80127c:	00006206 	br	801408 <parseBmp+0x350>
			offset = pixels - rowOffset - j - 1;
  801280:	e0fff917 	ldw	r3,-28(fp)
  801284:	e0bff817 	ldw	r2,-32(fp)
  801288:	1887c83a 	sub	r3,r3,r2
  80128c:	e0bffb17 	ldw	r2,-20(fp)
  801290:	1885c83a 	sub	r2,r3,r2
  801294:	10bfffc4 	addi	r2,r2,-1
  801298:	e0bff715 	stw	r2,-36(fp)

			(bmp->rgb + offset)->b = (readByte(fh) & 0xF1) >> 3;
  80129c:	e0bffe17 	ldw	r2,-8(fp)
  8012a0:	11000e17 	ldw	r4,56(r2)
  8012a4:	e0fff717 	ldw	r3,-36(fp)
  8012a8:	1805883a 	mov	r2,r3
  8012ac:	1085883a 	add	r2,r2,r2
  8012b0:	10c5883a 	add	r2,r2,r3
  8012b4:	20a1883a 	add	r16,r4,r2
  8012b8:	e13ff60f 	ldh	r4,-40(fp)
  8012bc:	080437c0 	call	80437c <readByte>
  8012c0:	10803fcc 	andi	r2,r2,255
  8012c4:	10803c4c 	andi	r2,r2,241
  8012c8:	1005d0fa 	srai	r2,r2,3
  8012cc:	80800085 	stb	r2,2(r16)
			(bmp->rgb + offset)->g = (readByte(fh) & 0xFC) >> 2;
  8012d0:	e0bffe17 	ldw	r2,-8(fp)
  8012d4:	11000e17 	ldw	r4,56(r2)
  8012d8:	e0fff717 	ldw	r3,-36(fp)
  8012dc:	1805883a 	mov	r2,r3
  8012e0:	1085883a 	add	r2,r2,r2
  8012e4:	10c5883a 	add	r2,r2,r3
  8012e8:	20a1883a 	add	r16,r4,r2
  8012ec:	e13ff60f 	ldh	r4,-40(fp)
  8012f0:	080437c0 	call	80437c <readByte>
  8012f4:	10803fcc 	andi	r2,r2,255
  8012f8:	10803f0c 	andi	r2,r2,252
  8012fc:	1005d0ba 	srai	r2,r2,2
  801300:	80800045 	stb	r2,1(r16)
			(bmp->rgb + offset)->r = (readByte(fh) & 0xF1) >> 3;
  801304:	e0bffe17 	ldw	r2,-8(fp)
  801308:	11000e17 	ldw	r4,56(r2)
  80130c:	e0fff717 	ldw	r3,-36(fp)
  801310:	1805883a 	mov	r2,r3
  801314:	1085883a 	add	r2,r2,r2
  801318:	10c5883a 	add	r2,r2,r3
  80131c:	20a1883a 	add	r16,r4,r2
  801320:	e13ff60f 	ldh	r4,-40(fp)
  801324:	080437c0 	call	80437c <readByte>
  801328:	10803fcc 	andi	r2,r2,255
  80132c:	10803c4c 	andi	r2,r2,241
  801330:	1005d0fa 	srai	r2,r2,3
  801334:	80800005 	stb	r2,0(r16)

			//Filter out the pink pixels
			if (((bmp->rgb + offset)->b == 0x1E) && ((bmp->rgb + offset)->g == 0) && ((bmp->rgb + offset)->r == 0x1E)) {
  801338:	e0bffe17 	ldw	r2,-8(fp)
  80133c:	11000e17 	ldw	r4,56(r2)
  801340:	e0fff717 	ldw	r3,-36(fp)
  801344:	1805883a 	mov	r2,r3
  801348:	1085883a 	add	r2,r2,r2
  80134c:	10c5883a 	add	r2,r2,r3
  801350:	2085883a 	add	r2,r4,r2
  801354:	10800083 	ldbu	r2,2(r2)
  801358:	10803fcc 	andi	r2,r2,255
  80135c:	10800798 	cmpnei	r2,r2,30
  801360:	1000261e 	bne	r2,zero,8013fc <parseBmp+0x344>
  801364:	e0bffe17 	ldw	r2,-8(fp)
  801368:	11000e17 	ldw	r4,56(r2)
  80136c:	e0fff717 	ldw	r3,-36(fp)
  801370:	1805883a 	mov	r2,r3
  801374:	1085883a 	add	r2,r2,r2
  801378:	10c5883a 	add	r2,r2,r3
  80137c:	2085883a 	add	r2,r4,r2
  801380:	10800043 	ldbu	r2,1(r2)
  801384:	10803fcc 	andi	r2,r2,255
  801388:	1004c03a 	cmpne	r2,r2,zero
  80138c:	10001b1e 	bne	r2,zero,8013fc <parseBmp+0x344>
  801390:	e0bffe17 	ldw	r2,-8(fp)
  801394:	11000e17 	ldw	r4,56(r2)
  801398:	e0fff717 	ldw	r3,-36(fp)
  80139c:	1805883a 	mov	r2,r3
  8013a0:	1085883a 	add	r2,r2,r2
  8013a4:	10c5883a 	add	r2,r2,r3
  8013a8:	2085883a 	add	r2,r4,r2
  8013ac:	10800003 	ldbu	r2,0(r2)
  8013b0:	10803fcc 	andi	r2,r2,255
  8013b4:	10800798 	cmpnei	r2,r2,30
  8013b8:	1000101e 	bne	r2,zero,8013fc <parseBmp+0x344>
				(bmp->rgb + offset)->b = 0x0;
  8013bc:	e0bffe17 	ldw	r2,-8(fp)
  8013c0:	11000e17 	ldw	r4,56(r2)
  8013c4:	e0fff717 	ldw	r3,-36(fp)
  8013c8:	1805883a 	mov	r2,r3
  8013cc:	1085883a 	add	r2,r2,r2
  8013d0:	10c5883a 	add	r2,r2,r3
  8013d4:	2085883a 	add	r2,r4,r2
  8013d8:	10000085 	stb	zero,2(r2)
				(bmp->rgb + offset)->r = 0x0;
  8013dc:	e0bffe17 	ldw	r2,-8(fp)
  8013e0:	11000e17 	ldw	r4,56(r2)
  8013e4:	e0fff717 	ldw	r3,-36(fp)
  8013e8:	1805883a 	mov	r2,r3
  8013ec:	1085883a 	add	r2,r2,r2
  8013f0:	10c5883a 	add	r2,r2,r3
  8013f4:	2085883a 	add	r2,r4,r2
  8013f8:	10000005 	stb	zero,0(r2)
	pixels = bmp->infoheader.width * bmp->infoheader.height;
	bmp->rgb = malloc(BYTES_PER_PIXEL * pixels);

	for(i = 0; i < bmp->infoheader.height; i++) {
		rowOffset = i*bmp->infoheader.width;
		for(j = 0; j < bmp->infoheader.width; j++ ){
  8013fc:	e0bffb17 	ldw	r2,-20(fp)
  801400:	10800044 	addi	r2,r2,1
  801404:	e0bffb15 	stw	r2,-20(fp)
  801408:	e0bffe17 	ldw	r2,-8(fp)
  80140c:	10c00517 	ldw	r3,20(r2)
  801410:	e0bffb17 	ldw	r2,-20(fp)
  801414:	10ff9a16 	blt	r2,r3,801280 <parseBmp+0x1c8>
				(bmp->rgb + offset)->b = 0x0;
				(bmp->rgb + offset)->r = 0x0;
			}
		}

		if((BYTES_PER_PIXEL*bmp->infoheader.width) % 4 != 0) {
  801418:	e0bffe17 	ldw	r2,-8(fp)
  80141c:	10c00517 	ldw	r3,20(r2)
  801420:	1805883a 	mov	r2,r3
  801424:	1085883a 	add	r2,r2,r2
  801428:	10c5883a 	add	r2,r2,r3
  80142c:	108000cc 	andi	r2,r2,3
  801430:	1005003a 	cmpeq	r2,r2,zero
  801434:	1000221e 	bne	r2,zero,8014c0 <parseBmp+0x408>
			for (k = 0; k <  (4 - ((BYTES_PER_PIXEL*bmp->infoheader.width) % 4)); k++) {
  801438:	e03ffa15 	stw	zero,-24(fp)
  80143c:	00000506 	br	801454 <parseBmp+0x39c>
				readByte(fh);
  801440:	e13ff60f 	ldh	r4,-40(fp)
  801444:	080437c0 	call	80437c <readByte>
				(bmp->rgb + offset)->r = 0x0;
			}
		}

		if((BYTES_PER_PIXEL*bmp->infoheader.width) % 4 != 0) {
			for (k = 0; k <  (4 - ((BYTES_PER_PIXEL*bmp->infoheader.width) % 4)); k++) {
  801448:	e0bffa17 	ldw	r2,-24(fp)
  80144c:	10800044 	addi	r2,r2,1
  801450:	e0bffa15 	stw	r2,-24(fp)
  801454:	e0bffe17 	ldw	r2,-8(fp)
  801458:	10c00517 	ldw	r3,20(r2)
  80145c:	1805883a 	mov	r2,r3
  801460:	1085883a 	add	r2,r2,r2
  801464:	10c7883a 	add	r3,r2,r3
  801468:	00a00034 	movhi	r2,32768
  80146c:	108000c4 	addi	r2,r2,3
  801470:	1886703a 	and	r3,r3,r2
  801474:	e0ffff15 	stw	r3,-4(fp)
  801478:	e0ffff17 	ldw	r3,-4(fp)
  80147c:	1804403a 	cmpge	r2,r3,zero
  801480:	10000a1e 	bne	r2,zero,8014ac <parseBmp+0x3f4>
  801484:	e0bfff17 	ldw	r2,-4(fp)
  801488:	10bfffc4 	addi	r2,r2,-1
  80148c:	e0bfff15 	stw	r2,-4(fp)
  801490:	00bfff04 	movi	r2,-4
  801494:	e0ffff17 	ldw	r3,-4(fp)
  801498:	1886b03a 	or	r3,r3,r2
  80149c:	e0ffff15 	stw	r3,-4(fp)
  8014a0:	e0bfff17 	ldw	r2,-4(fp)
  8014a4:	10800044 	addi	r2,r2,1
  8014a8:	e0bfff15 	stw	r2,-4(fp)
  8014ac:	e0ffff17 	ldw	r3,-4(fp)
  8014b0:	00800104 	movi	r2,4
  8014b4:	10c7c83a 	sub	r3,r2,r3
  8014b8:	e0bffa17 	ldw	r2,-24(fp)
  8014bc:	10ffe016 	blt	r2,r3,801440 <parseBmp+0x388>
	bmp->infoheader.importantcolors = readDWord(fh);

	pixels = bmp->infoheader.width * bmp->infoheader.height;
	bmp->rgb = malloc(BYTES_PER_PIXEL * pixels);

	for(i = 0; i < bmp->infoheader.height; i++) {
  8014c0:	e0bffc17 	ldw	r2,-16(fp)
  8014c4:	10800044 	addi	r2,r2,1
  8014c8:	e0bffc15 	stw	r2,-16(fp)
  8014cc:	e0bffe17 	ldw	r2,-8(fp)
  8014d0:	10c00617 	ldw	r3,24(r2)
  8014d4:	e0bffc17 	ldw	r2,-16(fp)
  8014d8:	10ff6216 	blt	r2,r3,801264 <parseBmp+0x1ac>
				readByte(fh);
			}
		}
	}

	closeFile(fh);
  8014dc:	e13ff60f 	ldh	r4,-40(fp)
  8014e0:	080434c0 	call	80434c <closeFile>
}
  8014e4:	e037883a 	mov	sp,fp
  8014e8:	dfc00217 	ldw	ra,8(sp)
  8014ec:	df000117 	ldw	fp,4(sp)
  8014f0:	dc000017 	ldw	r16,0(sp)
  8014f4:	dec00304 	addi	sp,sp,12
  8014f8:	f800283a 	ret

008014fc <parseBmps>:

void parseBmps() {
  8014fc:	defffe04 	addi	sp,sp,-8
  801500:	dfc00115 	stw	ra,4(sp)
  801504:	df000015 	stw	fp,0(sp)
  801508:	d839883a 	mov	fp,sp
	splashBmp = malloc(sizeof(BMP));
  80150c:	01000f04 	movi	r4,60
  801510:	0808eb00 	call	808eb0 <malloc>
  801514:	d0a71815 	stw	r2,-25504(gp)
	sharkBmp = malloc(sizeof(BMP));
  801518:	01000f04 	movi	r4,60
  80151c:	0808eb00 	call	808eb0 <malloc>
  801520:	d0a71715 	stw	r2,-25508(gp)
	playerBmp = malloc(sizeof(BMP));
  801524:	01000f04 	movi	r4,60
  801528:	0808eb00 	call	808eb0 <malloc>
  80152c:	d0a71a15 	stw	r2,-25496(gp)

	parseBmp("splash.bmp", splashBmp);
  801530:	d1671817 	ldw	r5,-25504(gp)
  801534:	010020b4 	movhi	r4,130
  801538:	212e0504 	addi	r4,r4,-18412
  80153c:	08010b80 	call	8010b8 <parseBmp>
	parseBmp("shark.bmp", sharkBmp);
  801540:	d1671717 	ldw	r5,-25508(gp)
  801544:	010020b4 	movhi	r4,130
  801548:	212e0804 	addi	r4,r4,-18400
  80154c:	08010b80 	call	8010b8 <parseBmp>
	parseBmp("player.bmp", playerBmp);
  801550:	d1671a17 	ldw	r5,-25496(gp)
  801554:	010020b4 	movhi	r4,130
  801558:	212e0b04 	addi	r4,r4,-18388
  80155c:	08010b80 	call	8010b8 <parseBmp>
}
  801560:	e037883a 	mov	sp,fp
  801564:	dfc00117 	ldw	ra,4(sp)
  801568:	df000017 	ldw	fp,0(sp)
  80156c:	dec00204 	addi	sp,sp,8
  801570:	f800283a 	ret

00801574 <freeBmps>:

void freeBmps(){
  801574:	defffe04 	addi	sp,sp,-8
  801578:	dfc00115 	stw	ra,4(sp)
  80157c:	df000015 	stw	fp,0(sp)
  801580:	d839883a 	mov	fp,sp
	free(playerBmp->rgb);
  801584:	d0a71a17 	ldw	r2,-25496(gp)
  801588:	11000e17 	ldw	r4,56(r2)
  80158c:	0808e9c0 	call	808e9c <free>
	free(sharkBmp->rgb);
  801590:	d0a71717 	ldw	r2,-25508(gp)
  801594:	11000e17 	ldw	r4,56(r2)
  801598:	0808e9c0 	call	808e9c <free>

	free(sharkBmp);
  80159c:	d1271717 	ldw	r4,-25508(gp)
  8015a0:	0808e9c0 	call	808e9c <free>
	free(playerBmp);
  8015a4:	d1271a17 	ldw	r4,-25496(gp)
  8015a8:	0808e9c0 	call	808e9c <free>
}
  8015ac:	e037883a 	mov	sp,fp
  8015b0:	dfc00117 	ldw	ra,4(sp)
  8015b4:	df000017 	ldw	fp,0(sp)
  8015b8:	dec00204 	addi	sp,sp,8
  8015bc:	f800283a 	ret

008015c0 <freeSplash>:

void freeSplash() {
  8015c0:	defffe04 	addi	sp,sp,-8
  8015c4:	dfc00115 	stw	ra,4(sp)
  8015c8:	df000015 	stw	fp,0(sp)
  8015cc:	d839883a 	mov	fp,sp
	free(splashBmp->rgb);
  8015d0:	d0a71817 	ldw	r2,-25504(gp)
  8015d4:	11000e17 	ldw	r4,56(r2)
  8015d8:	0808e9c0 	call	808e9c <free>
	free(splashBmp);
  8015dc:	d1271817 	ldw	r4,-25504(gp)
  8015e0:	0808e9c0 	call	808e9c <free>
}
  8015e4:	e037883a 	mov	sp,fp
  8015e8:	dfc00117 	ldw	ra,4(sp)
  8015ec:	df000017 	ldw	fp,0(sp)
  8015f0:	dec00204 	addi	sp,sp,8
  8015f4:	f800283a 	ret

008015f8 <drawBmp>:


void drawBmp (BMP *bmp, int x, int y) {
  8015f8:	defff804 	addi	sp,sp,-32
  8015fc:	dfc00715 	stw	ra,28(sp)
  801600:	df000615 	stw	fp,24(sp)
  801604:	df000604 	addi	fp,sp,24
  801608:	e13ffd15 	stw	r4,-12(fp)
  80160c:	e17ffe15 	stw	r5,-8(fp)
  801610:	e1bfff15 	stw	r6,-4(fp)
	int i,j;
	int color;

	for(i = 0; i < bmp->infoheader.height; i++) {
  801614:	e03ffc15 	stw	zero,-16(fp)
  801618:	00004906 	br	801740 <drawBmp+0x148>
		for(j = 0; j < bmp->infoheader.width; j++){
  80161c:	e03ffb15 	stw	zero,-20(fp)
  801620:	00004006 	br	801724 <drawBmp+0x12c>
			color = ((bmp->rgb + i*bmp->infoheader.width +j)->r << 11) | ((bmp->rgb + i*bmp->infoheader.width +j)->g << 5) | (bmp->rgb + i*bmp->infoheader.width +j)->b;
  801624:	e0bffd17 	ldw	r2,-12(fp)
  801628:	11000e17 	ldw	r4,56(r2)
  80162c:	e0bffd17 	ldw	r2,-12(fp)
  801630:	10c00517 	ldw	r3,20(r2)
  801634:	e0bffc17 	ldw	r2,-16(fp)
  801638:	1885383a 	mul	r2,r3,r2
  80163c:	1007883a 	mov	r3,r2
  801640:	e0bffb17 	ldw	r2,-20(fp)
  801644:	1887883a 	add	r3,r3,r2
  801648:	1805883a 	mov	r2,r3
  80164c:	1085883a 	add	r2,r2,r2
  801650:	10c5883a 	add	r2,r2,r3
  801654:	2085883a 	add	r2,r4,r2
  801658:	10800003 	ldbu	r2,0(r2)
  80165c:	10803fcc 	andi	r2,r2,255
  801660:	100892fa 	slli	r4,r2,11
  801664:	e0bffd17 	ldw	r2,-12(fp)
  801668:	11400e17 	ldw	r5,56(r2)
  80166c:	e0bffd17 	ldw	r2,-12(fp)
  801670:	10c00517 	ldw	r3,20(r2)
  801674:	e0bffc17 	ldw	r2,-16(fp)
  801678:	1885383a 	mul	r2,r3,r2
  80167c:	1007883a 	mov	r3,r2
  801680:	e0bffb17 	ldw	r2,-20(fp)
  801684:	1887883a 	add	r3,r3,r2
  801688:	1805883a 	mov	r2,r3
  80168c:	1085883a 	add	r2,r2,r2
  801690:	10c5883a 	add	r2,r2,r3
  801694:	2885883a 	add	r2,r5,r2
  801698:	10800043 	ldbu	r2,1(r2)
  80169c:	10803fcc 	andi	r2,r2,255
  8016a0:	1004917a 	slli	r2,r2,5
  8016a4:	2088b03a 	or	r4,r4,r2
  8016a8:	e0bffd17 	ldw	r2,-12(fp)
  8016ac:	11400e17 	ldw	r5,56(r2)
  8016b0:	e0bffd17 	ldw	r2,-12(fp)
  8016b4:	10c00517 	ldw	r3,20(r2)
  8016b8:	e0bffc17 	ldw	r2,-16(fp)
  8016bc:	1885383a 	mul	r2,r3,r2
  8016c0:	1007883a 	mov	r3,r2
  8016c4:	e0bffb17 	ldw	r2,-20(fp)
  8016c8:	1887883a 	add	r3,r3,r2
  8016cc:	1805883a 	mov	r2,r3
  8016d0:	1085883a 	add	r2,r2,r2
  8016d4:	10c5883a 	add	r2,r2,r3
  8016d8:	2885883a 	add	r2,r5,r2
  8016dc:	10800083 	ldbu	r2,2(r2)
  8016e0:	10803fcc 	andi	r2,r2,255
  8016e4:	2084b03a 	or	r2,r4,r2
  8016e8:	e0bffa15 	stw	r2,-24(fp)

			if(color == 0)
  8016ec:	e0bffa17 	ldw	r2,-24(fp)
  8016f0:	1005003a 	cmpeq	r2,r2,zero
  8016f4:	1000081e 	bne	r2,zero,801718 <drawBmp+0x120>
				continue;

			drawPixel(x + j, y + i, color);
  8016f8:	e0fffe17 	ldw	r3,-8(fp)
  8016fc:	e0bffb17 	ldw	r2,-20(fp)
  801700:	1889883a 	add	r4,r3,r2
  801704:	e0ffff17 	ldw	r3,-4(fp)
  801708:	e0bffc17 	ldw	r2,-16(fp)
  80170c:	188b883a 	add	r5,r3,r2
  801710:	e1bffa17 	ldw	r6,-24(fp)
  801714:	080519c0 	call	80519c <drawPixel>
void drawBmp (BMP *bmp, int x, int y) {
	int i,j;
	int color;

	for(i = 0; i < bmp->infoheader.height; i++) {
		for(j = 0; j < bmp->infoheader.width; j++){
  801718:	e0bffb17 	ldw	r2,-20(fp)
  80171c:	10800044 	addi	r2,r2,1
  801720:	e0bffb15 	stw	r2,-20(fp)
  801724:	e0bffd17 	ldw	r2,-12(fp)
  801728:	10c00517 	ldw	r3,20(r2)
  80172c:	e0bffb17 	ldw	r2,-20(fp)
  801730:	10ffbc16 	blt	r2,r3,801624 <drawBmp+0x2c>

void drawBmp (BMP *bmp, int x, int y) {
	int i,j;
	int color;

	for(i = 0; i < bmp->infoheader.height; i++) {
  801734:	e0bffc17 	ldw	r2,-16(fp)
  801738:	10800044 	addi	r2,r2,1
  80173c:	e0bffc15 	stw	r2,-16(fp)
  801740:	e0bffd17 	ldw	r2,-12(fp)
  801744:	10c00617 	ldw	r3,24(r2)
  801748:	e0bffc17 	ldw	r2,-16(fp)
  80174c:	10ffb316 	blt	r2,r3,80161c <drawBmp+0x24>
				continue;

			drawPixel(x + j, y + i, color);
		}
	}
}
  801750:	e037883a 	mov	sp,fp
  801754:	dfc00117 	ldw	ra,4(sp)
  801758:	df000017 	ldw	fp,0(sp)
  80175c:	dec00204 	addi	sp,sp,8
  801760:	f800283a 	ret

00801764 <eraseBmp>:

void eraseBmp (BMP *bmp, int x, int y) {
  801764:	defffa04 	addi	sp,sp,-24
  801768:	dfc00515 	stw	ra,20(sp)
  80176c:	df000415 	stw	fp,16(sp)
  801770:	df000404 	addi	fp,sp,16
  801774:	e13ffd15 	stw	r4,-12(fp)
  801778:	e17ffe15 	stw	r5,-8(fp)
  80177c:	e1bfff15 	stw	r6,-4(fp)
	drawBox(x, y, x  + bmp->infoheader.width, y + bmp->infoheader.height, 0);
  801780:	e0bffd17 	ldw	r2,-12(fp)
  801784:	10c00517 	ldw	r3,20(r2)
  801788:	e0bffe17 	ldw	r2,-8(fp)
  80178c:	188d883a 	add	r6,r3,r2
  801790:	e0bffd17 	ldw	r2,-12(fp)
  801794:	10c00617 	ldw	r3,24(r2)
  801798:	e0bfff17 	ldw	r2,-4(fp)
  80179c:	188f883a 	add	r7,r3,r2
  8017a0:	d8000015 	stw	zero,0(sp)
  8017a4:	e13ffe17 	ldw	r4,-8(fp)
  8017a8:	e17fff17 	ldw	r5,-4(fp)
  8017ac:	08052e40 	call	8052e4 <drawBox>
}
  8017b0:	e037883a 	mov	sp,fp
  8017b4:	dfc00117 	ldw	ra,4(sp)
  8017b8:	df000017 	ldw	fp,0(sp)
  8017bc:	dec00204 	addi	sp,sp,8
  8017c0:	f800283a 	ret

008017c4 <initBullets>:
Bullet *playerBulletList = NULL;
Bullet *sharkBulletList = NULL;
int playerLaserColor;
int sharkLaserColor;

void initBullets() {
  8017c4:	defffd04 	addi	sp,sp,-12
  8017c8:	dfc00215 	stw	ra,8(sp)
  8017cc:	df000115 	stw	fp,4(sp)
  8017d0:	df000104 	addi	fp,sp,4
	int i = 0;
  8017d4:	e03fff15 	stw	zero,-4(fp)
	for (i = 0; i < NUM_BULLETS; i++) {
  8017d8:	e03fff15 	stw	zero,-4(fp)
  8017dc:	00001906 	br	801844 <initBullets+0x80>
		bulletArray[i].type = NOTACTIVE;
  8017e0:	e0bfff17 	ldw	r2,-4(fp)
  8017e4:	00c020b4 	movhi	r3,130
  8017e8:	18ffa204 	addi	r3,r3,-376
  8017ec:	1004917a 	slli	r2,r2,5
  8017f0:	10c5883a 	add	r2,r2,r3
  8017f4:	10c00404 	addi	r3,r2,16
  8017f8:	00800084 	movi	r2,2
  8017fc:	18800015 	stw	r2,0(r3)
		bulletArray[i].next = NULL;
  801800:	e0bfff17 	ldw	r2,-4(fp)
  801804:	00c020b4 	movhi	r3,130
  801808:	18ffa204 	addi	r3,r3,-376
  80180c:	1004917a 	slli	r2,r2,5
  801810:	10c5883a 	add	r2,r2,r3
  801814:	10800604 	addi	r2,r2,24
  801818:	10000015 	stw	zero,0(r2)
		bulletArray[i].prev = NULL;
  80181c:	e0bfff17 	ldw	r2,-4(fp)
  801820:	00c020b4 	movhi	r3,130
  801824:	18ffa204 	addi	r3,r3,-376
  801828:	1004917a 	slli	r2,r2,5
  80182c:	10c5883a 	add	r2,r2,r3
  801830:	10800704 	addi	r2,r2,28
  801834:	10000015 	stw	zero,0(r2)
int playerLaserColor;
int sharkLaserColor;

void initBullets() {
	int i = 0;
	for (i = 0; i < NUM_BULLETS; i++) {
  801838:	e0bfff17 	ldw	r2,-4(fp)
  80183c:	10800044 	addi	r2,r2,1
  801840:	e0bfff15 	stw	r2,-4(fp)
  801844:	e0bfff17 	ldw	r2,-4(fp)
  801848:	10802010 	cmplti	r2,r2,128
  80184c:	103fe41e 	bne	r2,zero,8017e0 <initBullets+0x1c>
		bulletArray[i].type = NOTACTIVE;
		bulletArray[i].next = NULL;
		bulletArray[i].prev = NULL;
	}

	playerLaserColor = convert24BitRgbTo16(0xFF0000);
  801850:	01003ff4 	movhi	r4,255
  801854:	08053440 	call	805344 <convert24BitRgbTo16>
  801858:	d0a71e15 	stw	r2,-25480(gp)
	sharkLaserColor = convert24BitRgbTo16(0x66FFCC);
  80185c:	010019f4 	movhi	r4,103
  801860:	213ff304 	addi	r4,r4,-52
  801864:	08053440 	call	805344 <convert24BitRgbTo16>
  801868:	d0a71d15 	stw	r2,-25484(gp)
}
  80186c:	e037883a 	mov	sp,fp
  801870:	dfc00117 	ldw	ra,4(sp)
  801874:	df000017 	ldw	fp,0(sp)
  801878:	dec00204 	addi	sp,sp,8
  80187c:	f800283a 	ret

00801880 <createBullet>:

void createBullet(bullettype type, int x, int y) {
  801880:	defff904 	addi	sp,sp,-28
  801884:	dfc00615 	stw	ra,24(sp)
  801888:	df000515 	stw	fp,20(sp)
  80188c:	df000504 	addi	fp,sp,20
  801890:	e13ffd15 	stw	r4,-12(fp)
  801894:	e17ffe15 	stw	r5,-8(fp)
  801898:	e1bfff15 	stw	r6,-4(fp)
	int index;
	Bullet *newBullet = NULL;
  80189c:	e03ffb15 	stw	zero,-20(fp)
	for (index = 0; index < NUM_BULLETS; index++) {
  8018a0:	e03ffc15 	stw	zero,-16(fp)
  8018a4:	00002306 	br	801934 <createBullet+0xb4>
		if (bulletArray[index].type == NOTACTIVE)	{
  8018a8:	e0bffc17 	ldw	r2,-16(fp)
  8018ac:	00c020b4 	movhi	r3,130
  8018b0:	18ffa204 	addi	r3,r3,-376
  8018b4:	1004917a 	slli	r2,r2,5
  8018b8:	10c5883a 	add	r2,r2,r3
  8018bc:	10800404 	addi	r2,r2,16
  8018c0:	10800017 	ldw	r2,0(r2)
  8018c4:	10800098 	cmpnei	r2,r2,2
  8018c8:	1000171e 	bne	r2,zero,801928 <createBullet+0xa8>
			newBullet = &(bulletArray[index]);
  8018cc:	e0bffc17 	ldw	r2,-16(fp)
  8018d0:	1004917a 	slli	r2,r2,5
  8018d4:	1007883a 	mov	r3,r2
  8018d8:	008020b4 	movhi	r2,130
  8018dc:	10bfa204 	addi	r2,r2,-376
  8018e0:	1885883a 	add	r2,r3,r2
  8018e4:	e0bffb15 	stw	r2,-20(fp)
			newBullet->x = x;
  8018e8:	e0fffb17 	ldw	r3,-20(fp)
  8018ec:	e0bffe17 	ldw	r2,-8(fp)
  8018f0:	18800015 	stw	r2,0(r3)
			newBullet->y = y;
  8018f4:	e0fffb17 	ldw	r3,-20(fp)
  8018f8:	e0bfff17 	ldw	r2,-4(fp)
  8018fc:	18800215 	stw	r2,8(r3)
			newBullet->prevX = x;
  801900:	e0fffb17 	ldw	r3,-20(fp)
  801904:	e0bffe17 	ldw	r2,-8(fp)
  801908:	18800115 	stw	r2,4(r3)
			newBullet->prevY = y;
  80190c:	e0fffb17 	ldw	r3,-20(fp)
  801910:	e0bfff17 	ldw	r2,-4(fp)
  801914:	18800315 	stw	r2,12(r3)
			newBullet->type = type;
  801918:	e0fffb17 	ldw	r3,-20(fp)
  80191c:	e0bffd17 	ldw	r2,-12(fp)
  801920:	18800415 	stw	r2,16(r3)

			break;
  801924:	00000606 	br	801940 <createBullet+0xc0>
}

void createBullet(bullettype type, int x, int y) {
	int index;
	Bullet *newBullet = NULL;
	for (index = 0; index < NUM_BULLETS; index++) {
  801928:	e0bffc17 	ldw	r2,-16(fp)
  80192c:	10800044 	addi	r2,r2,1
  801930:	e0bffc15 	stw	r2,-16(fp)
  801934:	e0bffc17 	ldw	r2,-16(fp)
  801938:	10802010 	cmplti	r2,r2,128
  80193c:	103fda1e 	bne	r2,zero,8018a8 <createBullet+0x28>

			break;
		}
	}

	if (type == PLAYERBULLET) {
  801940:	e0bffd17 	ldw	r2,-12(fp)
  801944:	1004c03a 	cmpne	r2,r2,zero
  801948:	10000f1e 	bne	r2,zero,801988 <createBullet+0x108>
		if (playerBulletList != NULL) {
  80194c:	d0a71b17 	ldw	r2,-25492(gp)
  801950:	1005003a 	cmpeq	r2,r2,zero
  801954:	1000031e 	bne	r2,zero,801964 <createBullet+0xe4>
			playerBulletList->prev = newBullet;
  801958:	d0e71b17 	ldw	r3,-25492(gp)
  80195c:	e0bffb17 	ldw	r2,-20(fp)
  801960:	18800715 	stw	r2,28(r3)
		}
		newBullet->next = playerBulletList;
  801964:	d0e71b17 	ldw	r3,-25492(gp)
  801968:	e0bffb17 	ldw	r2,-20(fp)
  80196c:	10c00615 	stw	r3,24(r2)
		newBullet->laserColor = playerLaserColor;
  801970:	d0e71e17 	ldw	r3,-25480(gp)
  801974:	e0bffb17 	ldw	r2,-20(fp)
  801978:	10c00515 	stw	r3,20(r2)
		playerBulletList = newBullet;
  80197c:	e0bffb17 	ldw	r2,-20(fp)
  801980:	d0a71b15 	stw	r2,-25492(gp)
  801984:	00001106 	br	8019cc <createBullet+0x14c>
	} else if (type == SHARKBULLET){
  801988:	e0bffd17 	ldw	r2,-12(fp)
  80198c:	10800058 	cmpnei	r2,r2,1
  801990:	10000e1e 	bne	r2,zero,8019cc <createBullet+0x14c>
		if (sharkBulletList != NULL) {
  801994:	d0a71c17 	ldw	r2,-25488(gp)
  801998:	1005003a 	cmpeq	r2,r2,zero
  80199c:	1000031e 	bne	r2,zero,8019ac <createBullet+0x12c>
			sharkBulletList->prev = newBullet;
  8019a0:	d0e71c17 	ldw	r3,-25488(gp)
  8019a4:	e0bffb17 	ldw	r2,-20(fp)
  8019a8:	18800715 	stw	r2,28(r3)
		}
		newBullet->next = sharkBulletList;
  8019ac:	d0e71c17 	ldw	r3,-25488(gp)
  8019b0:	e0bffb17 	ldw	r2,-20(fp)
  8019b4:	10c00615 	stw	r3,24(r2)
		newBullet->laserColor = sharkLaserColor;
  8019b8:	d0e71d17 	ldw	r3,-25484(gp)
  8019bc:	e0bffb17 	ldw	r2,-20(fp)
  8019c0:	10c00515 	stw	r3,20(r2)
		sharkBulletList = newBullet;
  8019c4:	e0bffb17 	ldw	r2,-20(fp)
  8019c8:	d0a71c15 	stw	r2,-25488(gp)
	}

	playLaser();
  8019cc:	0800b2c0 	call	800b2c <playLaser>
}
  8019d0:	e037883a 	mov	sp,fp
  8019d4:	dfc00117 	ldw	ra,4(sp)
  8019d8:	df000017 	ldw	fp,0(sp)
  8019dc:	dec00204 	addi	sp,sp,8
  8019e0:	f800283a 	ret

008019e4 <moveAllBullets>:

void moveAllBullets() {
  8019e4:	defffd04 	addi	sp,sp,-12
  8019e8:	dfc00215 	stw	ra,8(sp)
  8019ec:	df000115 	stw	fp,4(sp)
  8019f0:	df000104 	addi	fp,sp,4
	int i;
	for (i = 0; i < NUM_BULLETS; i++) {
  8019f4:	e03fff15 	stw	zero,-4(fp)
  8019f8:	00002406 	br	801a8c <moveAllBullets+0xa8>
		if (bulletArray[i].type == PLAYERBULLET) {
  8019fc:	e0bfff17 	ldw	r2,-4(fp)
  801a00:	00c020b4 	movhi	r3,130
  801a04:	18ffa204 	addi	r3,r3,-376
  801a08:	1004917a 	slli	r2,r2,5
  801a0c:	10c5883a 	add	r2,r2,r3
  801a10:	10800404 	addi	r2,r2,16
  801a14:	10800017 	ldw	r2,0(r2)
  801a18:	1004c03a 	cmpne	r2,r2,zero
  801a1c:	1000081e 	bne	r2,zero,801a40 <moveAllBullets+0x5c>
			moveBulletRight(&bulletArray[i]);
  801a20:	e0bfff17 	ldw	r2,-4(fp)
  801a24:	1004917a 	slli	r2,r2,5
  801a28:	1007883a 	mov	r3,r2
  801a2c:	008020b4 	movhi	r2,130
  801a30:	10bfa204 	addi	r2,r2,-376
  801a34:	1889883a 	add	r4,r3,r2
  801a38:	0801cc00 	call	801cc0 <moveBulletRight>
  801a3c:	00001006 	br	801a80 <moveAllBullets+0x9c>
		} else if (bulletArray[i].type == SHARKBULLET) {
  801a40:	e0bfff17 	ldw	r2,-4(fp)
  801a44:	00c020b4 	movhi	r3,130
  801a48:	18ffa204 	addi	r3,r3,-376
  801a4c:	1004917a 	slli	r2,r2,5
  801a50:	10c5883a 	add	r2,r2,r3
  801a54:	10800404 	addi	r2,r2,16
  801a58:	10800017 	ldw	r2,0(r2)
  801a5c:	10800058 	cmpnei	r2,r2,1
  801a60:	1000071e 	bne	r2,zero,801a80 <moveAllBullets+0x9c>
			moveBulletLeft(&bulletArray[i]);
  801a64:	e0bfff17 	ldw	r2,-4(fp)
  801a68:	1004917a 	slli	r2,r2,5
  801a6c:	1007883a 	mov	r3,r2
  801a70:	008020b4 	movhi	r2,130
  801a74:	10bfa204 	addi	r2,r2,-376
  801a78:	1889883a 	add	r4,r3,r2
  801a7c:	0801dbc0 	call	801dbc <moveBulletLeft>
	playLaser();
}

void moveAllBullets() {
	int i;
	for (i = 0; i < NUM_BULLETS; i++) {
  801a80:	e0bfff17 	ldw	r2,-4(fp)
  801a84:	10800044 	addi	r2,r2,1
  801a88:	e0bfff15 	stw	r2,-4(fp)
  801a8c:	e0bfff17 	ldw	r2,-4(fp)
  801a90:	10802010 	cmplti	r2,r2,128
  801a94:	103fd91e 	bne	r2,zero,8019fc <moveAllBullets+0x18>
			moveBulletRight(&bulletArray[i]);
		} else if (bulletArray[i].type == SHARKBULLET) {
			moveBulletLeft(&bulletArray[i]);
		}
	}
}
  801a98:	e037883a 	mov	sp,fp
  801a9c:	dfc00117 	ldw	ra,4(sp)
  801aa0:	df000017 	ldw	fp,0(sp)
  801aa4:	dec00204 	addi	sp,sp,8
  801aa8:	f800283a 	ret

00801aac <drawAllBullets>:

void drawAllBullets() {
  801aac:	defffd04 	addi	sp,sp,-12
  801ab0:	dfc00215 	stw	ra,8(sp)
  801ab4:	df000115 	stw	fp,4(sp)
  801ab8:	df000104 	addi	fp,sp,4
	int i;
	for (i = 0; i < NUM_BULLETS; i++) {
  801abc:	e03fff15 	stw	zero,-4(fp)
  801ac0:	00001306 	br	801b10 <drawAllBullets+0x64>
		if (bulletArray[i].type != NOTACTIVE) {
  801ac4:	e0bfff17 	ldw	r2,-4(fp)
  801ac8:	00c020b4 	movhi	r3,130
  801acc:	18ffa204 	addi	r3,r3,-376
  801ad0:	1004917a 	slli	r2,r2,5
  801ad4:	10c5883a 	add	r2,r2,r3
  801ad8:	10800404 	addi	r2,r2,16
  801adc:	10800017 	ldw	r2,0(r2)
  801ae0:	108000a0 	cmpeqi	r2,r2,2
  801ae4:	1000071e 	bne	r2,zero,801b04 <drawAllBullets+0x58>
			drawBullet(&bulletArray[i]);
  801ae8:	e0bfff17 	ldw	r2,-4(fp)
  801aec:	1004917a 	slli	r2,r2,5
  801af0:	1007883a 	mov	r3,r2
  801af4:	008020b4 	movhi	r2,130
  801af8:	10bfa204 	addi	r2,r2,-376
  801afc:	1889883a 	add	r4,r3,r2
  801b00:	0801bb40 	call	801bb4 <drawBullet>
	}
}

void drawAllBullets() {
	int i;
	for (i = 0; i < NUM_BULLETS; i++) {
  801b04:	e0bfff17 	ldw	r2,-4(fp)
  801b08:	10800044 	addi	r2,r2,1
  801b0c:	e0bfff15 	stw	r2,-4(fp)
  801b10:	e0bfff17 	ldw	r2,-4(fp)
  801b14:	10802010 	cmplti	r2,r2,128
  801b18:	103fea1e 	bne	r2,zero,801ac4 <drawAllBullets+0x18>
		if (bulletArray[i].type != NOTACTIVE) {
			drawBullet(&bulletArray[i]);
		}
	}
}
  801b1c:	e037883a 	mov	sp,fp
  801b20:	dfc00117 	ldw	ra,4(sp)
  801b24:	df000017 	ldw	fp,0(sp)
  801b28:	dec00204 	addi	sp,sp,8
  801b2c:	f800283a 	ret

00801b30 <eraseAllBullets>:

void eraseAllBullets() {
  801b30:	defffd04 	addi	sp,sp,-12
  801b34:	dfc00215 	stw	ra,8(sp)
  801b38:	df000115 	stw	fp,4(sp)
  801b3c:	df000104 	addi	fp,sp,4
	int i;
	for (i = 0; i < NUM_BULLETS; i++) {
  801b40:	e03fff15 	stw	zero,-4(fp)
  801b44:	00001306 	br	801b94 <eraseAllBullets+0x64>
		if (bulletArray[i].type != NOTACTIVE) {
  801b48:	e0bfff17 	ldw	r2,-4(fp)
  801b4c:	00c020b4 	movhi	r3,130
  801b50:	18ffa204 	addi	r3,r3,-376
  801b54:	1004917a 	slli	r2,r2,5
  801b58:	10c5883a 	add	r2,r2,r3
  801b5c:	10800404 	addi	r2,r2,16
  801b60:	10800017 	ldw	r2,0(r2)
  801b64:	108000a0 	cmpeqi	r2,r2,2
  801b68:	1000071e 	bne	r2,zero,801b88 <eraseAllBullets+0x58>
			eraseBullet(&bulletArray[i]);
  801b6c:	e0bfff17 	ldw	r2,-4(fp)
  801b70:	1004917a 	slli	r2,r2,5
  801b74:	1007883a 	mov	r3,r2
  801b78:	008020b4 	movhi	r2,130
  801b7c:	10bfa204 	addi	r2,r2,-376
  801b80:	1889883a 	add	r4,r3,r2
  801b84:	0801c3c0 	call	801c3c <eraseBullet>
	}
}

void eraseAllBullets() {
	int i;
	for (i = 0; i < NUM_BULLETS; i++) {
  801b88:	e0bfff17 	ldw	r2,-4(fp)
  801b8c:	10800044 	addi	r2,r2,1
  801b90:	e0bfff15 	stw	r2,-4(fp)
  801b94:	e0bfff17 	ldw	r2,-4(fp)
  801b98:	10802010 	cmplti	r2,r2,128
  801b9c:	103fea1e 	bne	r2,zero,801b48 <eraseAllBullets+0x18>
		if (bulletArray[i].type != NOTACTIVE) {
			eraseBullet(&bulletArray[i]);
		}
	}
}
  801ba0:	e037883a 	mov	sp,fp
  801ba4:	dfc00117 	ldw	ra,4(sp)
  801ba8:	df000017 	ldw	fp,0(sp)
  801bac:	dec00204 	addi	sp,sp,8
  801bb0:	f800283a 	ret

00801bb4 <drawBullet>:

void drawBullet(Bullet *bullet) {
  801bb4:	defffc04 	addi	sp,sp,-16
  801bb8:	dfc00315 	stw	ra,12(sp)
  801bbc:	df000215 	stw	fp,8(sp)
  801bc0:	df000204 	addi	fp,sp,8
  801bc4:	e13fff15 	stw	r4,-4(fp)
	int i;
	for (i = 0; i < BULLET_LENGTH; i++) {
  801bc8:	e03ffe15 	stw	zero,-8(fp)
  801bcc:	00001306 	br	801c1c <drawBullet+0x68>
		if (bullet != NULL) {
  801bd0:	e0bfff17 	ldw	r2,-4(fp)
  801bd4:	1005003a 	cmpeq	r2,r2,zero
  801bd8:	10000a1e 	bne	r2,zero,801c04 <drawBullet+0x50>
			drawPixel(bullet->x + i, bullet->y, bullet->laserColor);
  801bdc:	e0bfff17 	ldw	r2,-4(fp)
  801be0:	10c00017 	ldw	r3,0(r2)
  801be4:	e0bffe17 	ldw	r2,-8(fp)
  801be8:	1889883a 	add	r4,r3,r2
  801bec:	e0bfff17 	ldw	r2,-4(fp)
  801bf0:	11400217 	ldw	r5,8(r2)
  801bf4:	e0bfff17 	ldw	r2,-4(fp)
  801bf8:	11800517 	ldw	r6,20(r2)
  801bfc:	080519c0 	call	80519c <drawPixel>
  801c00:	00000306 	br	801c10 <drawBullet+0x5c>
		} else {
			printf("Attempt to draw null bullet.\n");
  801c04:	010020b4 	movhi	r4,130
  801c08:	212e0e04 	addi	r4,r4,-18376
  801c0c:	080971c0 	call	80971c <puts>
	}
}

void drawBullet(Bullet *bullet) {
	int i;
	for (i = 0; i < BULLET_LENGTH; i++) {
  801c10:	e0bffe17 	ldw	r2,-8(fp)
  801c14:	10800044 	addi	r2,r2,1
  801c18:	e0bffe15 	stw	r2,-8(fp)
  801c1c:	e0bffe17 	ldw	r2,-8(fp)
  801c20:	108000d0 	cmplti	r2,r2,3
  801c24:	103fea1e 	bne	r2,zero,801bd0 <drawBullet+0x1c>
			drawPixel(bullet->x + i, bullet->y, bullet->laserColor);
		} else {
			printf("Attempt to draw null bullet.\n");
		}
	}
}
  801c28:	e037883a 	mov	sp,fp
  801c2c:	dfc00117 	ldw	ra,4(sp)
  801c30:	df000017 	ldw	fp,0(sp)
  801c34:	dec00204 	addi	sp,sp,8
  801c38:	f800283a 	ret

00801c3c <eraseBullet>:

void eraseBullet(Bullet *bullet) {
  801c3c:	defffc04 	addi	sp,sp,-16
  801c40:	dfc00315 	stw	ra,12(sp)
  801c44:	df000215 	stw	fp,8(sp)
  801c48:	df000204 	addi	fp,sp,8
  801c4c:	e13fff15 	stw	r4,-4(fp)
	int i;
	for (i = 0; i < BULLET_LENGTH; i++) {
  801c50:	e03ffe15 	stw	zero,-8(fp)
  801c54:	00001206 	br	801ca0 <eraseBullet+0x64>
		if (bullet != NULL) {
  801c58:	e0bfff17 	ldw	r2,-4(fp)
  801c5c:	1005003a 	cmpeq	r2,r2,zero
  801c60:	1000091e 	bne	r2,zero,801c88 <eraseBullet+0x4c>
			drawPixel(bullet->prevX + i, bullet->prevY, 0x0000);
  801c64:	e0bfff17 	ldw	r2,-4(fp)
  801c68:	10c00117 	ldw	r3,4(r2)
  801c6c:	e0bffe17 	ldw	r2,-8(fp)
  801c70:	1889883a 	add	r4,r3,r2
  801c74:	e0bfff17 	ldw	r2,-4(fp)
  801c78:	11400317 	ldw	r5,12(r2)
  801c7c:	000d883a 	mov	r6,zero
  801c80:	080519c0 	call	80519c <drawPixel>
  801c84:	00000306 	br	801c94 <eraseBullet+0x58>
		} else {
			printf("Attempt to draw null bullet.\n");
  801c88:	010020b4 	movhi	r4,130
  801c8c:	212e0e04 	addi	r4,r4,-18376
  801c90:	080971c0 	call	80971c <puts>
	}
}

void eraseBullet(Bullet *bullet) {
	int i;
	for (i = 0; i < BULLET_LENGTH; i++) {
  801c94:	e0bffe17 	ldw	r2,-8(fp)
  801c98:	10800044 	addi	r2,r2,1
  801c9c:	e0bffe15 	stw	r2,-8(fp)
  801ca0:	e0bffe17 	ldw	r2,-8(fp)
  801ca4:	108000d0 	cmplti	r2,r2,3
  801ca8:	103feb1e 	bne	r2,zero,801c58 <eraseBullet+0x1c>
			drawPixel(bullet->prevX + i, bullet->prevY, 0x0000);
		} else {
			printf("Attempt to draw null bullet.\n");
		}
	}
}
  801cac:	e037883a 	mov	sp,fp
  801cb0:	dfc00117 	ldw	ra,4(sp)
  801cb4:	df000017 	ldw	fp,0(sp)
  801cb8:	dec00204 	addi	sp,sp,8
  801cbc:	f800283a 	ret

00801cc0 <moveBulletRight>:

void moveBulletRight(Bullet *bullet) {
  801cc0:	defffb04 	addi	sp,sp,-20
  801cc4:	dfc00415 	stw	ra,16(sp)
  801cc8:	df000315 	stw	fp,12(sp)
  801ccc:	df000304 	addi	fp,sp,12
  801cd0:	e13fff15 	stw	r4,-4(fp)
	if (bullet == NULL) {
  801cd4:	e0bfff17 	ldw	r2,-4(fp)
  801cd8:	1004c03a 	cmpne	r2,r2,zero
  801cdc:	1000041e 	bne	r2,zero,801cf0 <moveBulletRight+0x30>
		printf("Attempt to move null bullet right.\n");
  801ce0:	010020b4 	movhi	r4,130
  801ce4:	212e1604 	addi	r4,r4,-18344
  801ce8:	080971c0 	call	80971c <puts>
		return;
  801cec:	00002e06 	br	801da8 <moveBulletRight+0xe8>
	}

	bullet->prevX = bullet->x;
  801cf0:	e0bfff17 	ldw	r2,-4(fp)
  801cf4:	10c00017 	ldw	r3,0(r2)
  801cf8:	e0bfff17 	ldw	r2,-4(fp)
  801cfc:	10c00115 	stw	r3,4(r2)
	bullet->prevY = bullet->y;
  801d00:	e0bfff17 	ldw	r2,-4(fp)
  801d04:	10c00217 	ldw	r3,8(r2)
  801d08:	e0bfff17 	ldw	r2,-4(fp)
  801d0c:	10c00315 	stw	r3,12(r2)

	bullet->x = bullet->x + 2;
  801d10:	e0bfff17 	ldw	r2,-4(fp)
  801d14:	10800017 	ldw	r2,0(r2)
  801d18:	10c00084 	addi	r3,r2,2
  801d1c:	e0bfff17 	ldw	r2,-4(fp)
  801d20:	10c00015 	stw	r3,0(r2)

	if ((bullet->x >= SCREEN_WIDTH) || (bullet->x <= -BULLET_LENGTH - 1)) {
  801d24:	e0bfff17 	ldw	r2,-4(fp)
  801d28:	10800017 	ldw	r2,0(r2)
  801d2c:	10805508 	cmpgei	r2,r2,340
  801d30:	1000041e 	bne	r2,zero,801d44 <moveBulletRight+0x84>
  801d34:	e0bfff17 	ldw	r2,-4(fp)
  801d38:	10800017 	ldw	r2,0(r2)
  801d3c:	10bfff48 	cmpgei	r2,r2,-3
  801d40:	1000191e 	bne	r2,zero,801da8 <moveBulletRight+0xe8>
		bullet->type = NOTACTIVE;
  801d44:	e0ffff17 	ldw	r3,-4(fp)
  801d48:	00800084 	movi	r2,2
  801d4c:	18800415 	stw	r2,16(r3)
		Bullet *nextBullet = bullet->next;
  801d50:	e0bfff17 	ldw	r2,-4(fp)
  801d54:	10800617 	ldw	r2,24(r2)
  801d58:	e0bffe15 	stw	r2,-8(fp)
		Bullet *prevBullet = bullet->prev;
  801d5c:	e0bfff17 	ldw	r2,-4(fp)
  801d60:	10800717 	ldw	r2,28(r2)
  801d64:	e0bffd15 	stw	r2,-12(fp)
		bullet->next = NULL;
  801d68:	e0bfff17 	ldw	r2,-4(fp)
  801d6c:	10000615 	stw	zero,24(r2)
		bullet->prev = NULL;
  801d70:	e0bfff17 	ldw	r2,-4(fp)
  801d74:	10000715 	stw	zero,28(r2)

		if (nextBullet != NULL) {
  801d78:	e0bffe17 	ldw	r2,-8(fp)
  801d7c:	1005003a 	cmpeq	r2,r2,zero
  801d80:	1000031e 	bne	r2,zero,801d90 <moveBulletRight+0xd0>
			nextBullet->prev = prevBullet;
  801d84:	e0fffe17 	ldw	r3,-8(fp)
  801d88:	e0bffd17 	ldw	r2,-12(fp)
  801d8c:	18800715 	stw	r2,28(r3)
		}
		if (prevBullet != NULL) {
  801d90:	e0bffd17 	ldw	r2,-12(fp)
  801d94:	1005003a 	cmpeq	r2,r2,zero
  801d98:	1000031e 	bne	r2,zero,801da8 <moveBulletRight+0xe8>
			prevBullet->next = nextBullet;
  801d9c:	e0fffd17 	ldw	r3,-12(fp)
  801da0:	e0bffe17 	ldw	r2,-8(fp)
  801da4:	18800615 	stw	r2,24(r3)
		}
	}
}
  801da8:	e037883a 	mov	sp,fp
  801dac:	dfc00117 	ldw	ra,4(sp)
  801db0:	df000017 	ldw	fp,0(sp)
  801db4:	dec00204 	addi	sp,sp,8
  801db8:	f800283a 	ret

00801dbc <moveBulletLeft>:

void moveBulletLeft(Bullet *bullet) {
  801dbc:	defffb04 	addi	sp,sp,-20
  801dc0:	dfc00415 	stw	ra,16(sp)
  801dc4:	df000315 	stw	fp,12(sp)
  801dc8:	df000304 	addi	fp,sp,12
  801dcc:	e13fff15 	stw	r4,-4(fp)
	if (bullet == NULL) {
  801dd0:	e0bfff17 	ldw	r2,-4(fp)
  801dd4:	1004c03a 	cmpne	r2,r2,zero
  801dd8:	1000041e 	bne	r2,zero,801dec <moveBulletLeft+0x30>
		printf("Attempt to move null bullet left.\n");
  801ddc:	010020b4 	movhi	r4,130
  801de0:	212e1f04 	addi	r4,r4,-18308
  801de4:	080971c0 	call	80971c <puts>
		return;
  801de8:	00002e06 	br	801ea4 <moveBulletLeft+0xe8>
	}

	bullet->prevX = bullet->x;
  801dec:	e0bfff17 	ldw	r2,-4(fp)
  801df0:	10c00017 	ldw	r3,0(r2)
  801df4:	e0bfff17 	ldw	r2,-4(fp)
  801df8:	10c00115 	stw	r3,4(r2)
	bullet->prevY = bullet->y;
  801dfc:	e0bfff17 	ldw	r2,-4(fp)
  801e00:	10c00217 	ldw	r3,8(r2)
  801e04:	e0bfff17 	ldw	r2,-4(fp)
  801e08:	10c00315 	stw	r3,12(r2)

	bullet->x = bullet->x - 2;
  801e0c:	e0bfff17 	ldw	r2,-4(fp)
  801e10:	10800017 	ldw	r2,0(r2)
  801e14:	10ffff84 	addi	r3,r2,-2
  801e18:	e0bfff17 	ldw	r2,-4(fp)
  801e1c:	10c00015 	stw	r3,0(r2)

	if ((bullet->x >= SCREEN_WIDTH) || (bullet->x <= -BULLET_LENGTH - 1)) {
  801e20:	e0bfff17 	ldw	r2,-4(fp)
  801e24:	10800017 	ldw	r2,0(r2)
  801e28:	10805508 	cmpgei	r2,r2,340
  801e2c:	1000041e 	bne	r2,zero,801e40 <moveBulletLeft+0x84>
  801e30:	e0bfff17 	ldw	r2,-4(fp)
  801e34:	10800017 	ldw	r2,0(r2)
  801e38:	10bfff48 	cmpgei	r2,r2,-3
  801e3c:	1000191e 	bne	r2,zero,801ea4 <moveBulletLeft+0xe8>
		bullet->type = NOTACTIVE;
  801e40:	e0ffff17 	ldw	r3,-4(fp)
  801e44:	00800084 	movi	r2,2
  801e48:	18800415 	stw	r2,16(r3)
		Bullet *nextBullet = bullet->next;
  801e4c:	e0bfff17 	ldw	r2,-4(fp)
  801e50:	10800617 	ldw	r2,24(r2)
  801e54:	e0bffe15 	stw	r2,-8(fp)
		Bullet *prevBullet = bullet->prev;
  801e58:	e0bfff17 	ldw	r2,-4(fp)
  801e5c:	10800717 	ldw	r2,28(r2)
  801e60:	e0bffd15 	stw	r2,-12(fp)
		bullet->next = NULL;
  801e64:	e0bfff17 	ldw	r2,-4(fp)
  801e68:	10000615 	stw	zero,24(r2)
		bullet->prev = NULL;
  801e6c:	e0bfff17 	ldw	r2,-4(fp)
  801e70:	10000715 	stw	zero,28(r2)

		if (nextBullet != NULL) {
  801e74:	e0bffe17 	ldw	r2,-8(fp)
  801e78:	1005003a 	cmpeq	r2,r2,zero
  801e7c:	1000031e 	bne	r2,zero,801e8c <moveBulletLeft+0xd0>
			nextBullet->prev = prevBullet;
  801e80:	e0fffe17 	ldw	r3,-8(fp)
  801e84:	e0bffd17 	ldw	r2,-12(fp)
  801e88:	18800715 	stw	r2,28(r3)
		}
		if (prevBullet != NULL) {
  801e8c:	e0bffd17 	ldw	r2,-12(fp)
  801e90:	1005003a 	cmpeq	r2,r2,zero
  801e94:	1000031e 	bne	r2,zero,801ea4 <moveBulletLeft+0xe8>
			prevBullet->next = nextBullet;
  801e98:	e0fffd17 	ldw	r3,-12(fp)
  801e9c:	e0bffe17 	ldw	r2,-8(fp)
  801ea0:	18800615 	stw	r2,24(r3)
		}
	}
}
  801ea4:	e037883a 	mov	sp,fp
  801ea8:	dfc00117 	ldw	ra,4(sp)
  801eac:	df000017 	ldw	fp,0(sp)
  801eb0:	dec00204 	addi	sp,sp,8
  801eb4:	f800283a 	ret

00801eb8 <findSharkIfHit>:
#include "collision.h"

#define TRUE 1
#define FALSE 0

Shark *findSharkIfHit(Bullet *bullet) {
  801eb8:	defffa04 	addi	sp,sp,-24
  801ebc:	dfc00515 	stw	ra,20(sp)
  801ec0:	df000415 	stw	fp,16(sp)
  801ec4:	df000404 	addi	fp,sp,16
  801ec8:	e13ffe15 	stw	r4,-8(fp)
	Shark *cursor = sharkList;
  801ecc:	008020b4 	movhi	r2,130
  801ed0:	10beea04 	addi	r2,r2,-1112
  801ed4:	10800017 	ldw	r2,0(r2)
  801ed8:	e0bffd15 	stw	r2,-12(fp)
	int i = 0;
  801edc:	e03ffc15 	stw	zero,-16(fp)
	while (cursor != NULL
  801ee0:	00000e06 	br	801f1c <findSharkIfHit+0x64>
			&& i < sharkCount) {
		if (isBulletCollidingWithShark(cursor, bullet) == TRUE) {
  801ee4:	e13ffd17 	ldw	r4,-12(fp)
  801ee8:	e17ffe17 	ldw	r5,-8(fp)
  801eec:	0801f580 	call	801f58 <isBulletCollidingWithShark>
  801ef0:	10800058 	cmpnei	r2,r2,1
  801ef4:	1000031e 	bne	r2,zero,801f04 <findSharkIfHit+0x4c>
			return cursor;
  801ef8:	e0bffd17 	ldw	r2,-12(fp)
  801efc:	e0bfff15 	stw	r2,-4(fp)
  801f00:	00000f06 	br	801f40 <findSharkIfHit+0x88>
		}
		cursor = cursor->next;
  801f04:	e0bffd17 	ldw	r2,-12(fp)
  801f08:	10800617 	ldw	r2,24(r2)
  801f0c:	e0bffd15 	stw	r2,-12(fp)
		i++;
  801f10:	e0bffc17 	ldw	r2,-16(fp)
  801f14:	10800044 	addi	r2,r2,1
  801f18:	e0bffc15 	stw	r2,-16(fp)
#define FALSE 0

Shark *findSharkIfHit(Bullet *bullet) {
	Shark *cursor = sharkList;
	int i = 0;
	while (cursor != NULL
  801f1c:	e0bffd17 	ldw	r2,-12(fp)
  801f20:	1005003a 	cmpeq	r2,r2,zero
  801f24:	1000051e 	bne	r2,zero,801f3c <findSharkIfHit+0x84>
  801f28:	e0bffc17 	ldw	r2,-16(fp)
  801f2c:	00c020b4 	movhi	r3,130
  801f30:	18feec04 	addi	r3,r3,-1104
  801f34:	18c00017 	ldw	r3,0(r3)
  801f38:	10ffea36 	bltu	r2,r3,801ee4 <findSharkIfHit+0x2c>
			return cursor;
		}
		cursor = cursor->next;
		i++;
	}
	return NULL;
  801f3c:	e03fff15 	stw	zero,-4(fp)
  801f40:	e0bfff17 	ldw	r2,-4(fp)
}
  801f44:	e037883a 	mov	sp,fp
  801f48:	dfc00117 	ldw	ra,4(sp)
  801f4c:	df000017 	ldw	fp,0(sp)
  801f50:	dec00204 	addi	sp,sp,8
  801f54:	f800283a 	ret

00801f58 <isBulletCollidingWithShark>:

int isBulletCollidingWithShark(Shark *shark, Bullet *bullet) {
  801f58:	defffb04 	addi	sp,sp,-20
  801f5c:	dfc00415 	stw	ra,16(sp)
  801f60:	df000315 	stw	fp,12(sp)
  801f64:	df000304 	addi	fp,sp,12
  801f68:	e13ffd15 	stw	r4,-12(fp)
  801f6c:	e17ffe15 	stw	r5,-8(fp)
	if (bullet == NULL || shark == NULL) {
  801f70:	e0bffe17 	ldw	r2,-8(fp)
  801f74:	1005003a 	cmpeq	r2,r2,zero
  801f78:	1000031e 	bne	r2,zero,801f88 <isBulletCollidingWithShark+0x30>
  801f7c:	e0bffd17 	ldw	r2,-12(fp)
  801f80:	1004c03a 	cmpne	r2,r2,zero
  801f84:	1000051e 	bne	r2,zero,801f9c <isBulletCollidingWithShark+0x44>
		printf("Attempt to do player/bullet collision with null member.\n");
  801f88:	010020b4 	movhi	r4,130
  801f8c:	212e2804 	addi	r4,r4,-18272
  801f90:	080971c0 	call	80971c <puts>
		return FALSE;
  801f94:	e03fff15 	stw	zero,-4(fp)
  801f98:	00002306 	br	802028 <isBulletCollidingWithShark+0xd0>
	}

	if (bullet->type == SHARKBULLET) {
  801f9c:	e0bffe17 	ldw	r2,-8(fp)
  801fa0:	10800417 	ldw	r2,16(r2)
  801fa4:	10800058 	cmpnei	r2,r2,1
  801fa8:	1000051e 	bne	r2,zero,801fc0 <isBulletCollidingWithShark+0x68>
		// No friendly fire
		printf("Error: sharkbullet present in player bullet list.\n");
  801fac:	010020b4 	movhi	r4,130
  801fb0:	212e3604 	addi	r4,r4,-18216
  801fb4:	080971c0 	call	80971c <puts>
		return FALSE;
  801fb8:	e03fff15 	stw	zero,-4(fp)
  801fbc:	00001a06 	br	802028 <isBulletCollidingWithShark+0xd0>
	}
	
	if (bullet->x >= shark->x &&
  801fc0:	e0bffe17 	ldw	r2,-8(fp)
  801fc4:	10c00017 	ldw	r3,0(r2)
  801fc8:	e0bffd17 	ldw	r2,-12(fp)
  801fcc:	10800017 	ldw	r2,0(r2)
  801fd0:	18801416 	blt	r3,r2,802024 <isBulletCollidingWithShark+0xcc>
  801fd4:	e0bffe17 	ldw	r2,-8(fp)
  801fd8:	10c00017 	ldw	r3,0(r2)
  801fdc:	e0bffd17 	ldw	r2,-12(fp)
  801fe0:	10800017 	ldw	r2,0(r2)
  801fe4:	10800944 	addi	r2,r2,37
  801fe8:	10c00e16 	blt	r2,r3,802024 <isBulletCollidingWithShark+0xcc>
		bullet->x <= shark->x + SHARK_WIDTH) {
		// Have x region correct
		//printf("x-hit\n");
		
		if (bullet->y >= shark->y &&
  801fec:	e0bffe17 	ldw	r2,-8(fp)
  801ff0:	10c00217 	ldw	r3,8(r2)
  801ff4:	e0bffd17 	ldw	r2,-12(fp)
  801ff8:	10800217 	ldw	r2,8(r2)
  801ffc:	18800916 	blt	r3,r2,802024 <isBulletCollidingWithShark+0xcc>
  802000:	e0bffe17 	ldw	r2,-8(fp)
  802004:	10c00217 	ldw	r3,8(r2)
  802008:	e0bffd17 	ldw	r2,-12(fp)
  80200c:	10800217 	ldw	r2,8(r2)
  802010:	10800504 	addi	r2,r2,20
  802014:	10c00316 	blt	r2,r3,802024 <isBulletCollidingWithShark+0xcc>
			bullet->y <= shark->y + SHARK_HEIGHT) {
			// Have y region correct
			//printf("y-hit\n");
			return TRUE;
  802018:	00800044 	movi	r2,1
  80201c:	e0bfff15 	stw	r2,-4(fp)
  802020:	00000106 	br	802028 <isBulletCollidingWithShark+0xd0>
		}
	}
	//printf("Miss\n");
	return FALSE;
  802024:	e03fff15 	stw	zero,-4(fp)
  802028:	e0bfff17 	ldw	r2,-4(fp)
}
  80202c:	e037883a 	mov	sp,fp
  802030:	dfc00117 	ldw	ra,4(sp)
  802034:	df000017 	ldw	fp,0(sp)
  802038:	dec00204 	addi	sp,sp,8
  80203c:	f800283a 	ret

00802040 <isBulletCollidingWithPlayer>:

int isBulletCollidingWithPlayer(Player *player, Bullet *bullet) {
  802040:	defffb04 	addi	sp,sp,-20
  802044:	dfc00415 	stw	ra,16(sp)
  802048:	df000315 	stw	fp,12(sp)
  80204c:	df000304 	addi	fp,sp,12
  802050:	e13ffd15 	stw	r4,-12(fp)
  802054:	e17ffe15 	stw	r5,-8(fp)
	if (player == NULL || bullet == NULL) {
  802058:	e0bffd17 	ldw	r2,-12(fp)
  80205c:	1005003a 	cmpeq	r2,r2,zero
  802060:	1000031e 	bne	r2,zero,802070 <isBulletCollidingWithPlayer+0x30>
  802064:	e0bffe17 	ldw	r2,-8(fp)
  802068:	1004c03a 	cmpne	r2,r2,zero
  80206c:	1000051e 	bne	r2,zero,802084 <isBulletCollidingWithPlayer+0x44>
		printf("Attempt to do player/bullet collision with null member.\n");
  802070:	010020b4 	movhi	r4,130
  802074:	212e2804 	addi	r4,r4,-18272
  802078:	080971c0 	call	80971c <puts>
		return FALSE;
  80207c:	e03fff15 	stw	zero,-4(fp)
  802080:	00002306 	br	802110 <isBulletCollidingWithPlayer+0xd0>
	}

	if (bullet->type == PLAYERBULLET) {
  802084:	e0bffe17 	ldw	r2,-8(fp)
  802088:	10800417 	ldw	r2,16(r2)
  80208c:	1004c03a 	cmpne	r2,r2,zero
  802090:	1000051e 	bne	r2,zero,8020a8 <isBulletCollidingWithPlayer+0x68>
		// No friendly fire
		printf("Error: player bullet in shark bullet list.\n");
  802094:	010020b4 	movhi	r4,130
  802098:	212e4304 	addi	r4,r4,-18164
  80209c:	080971c0 	call	80971c <puts>
		return FALSE;
  8020a0:	e03fff15 	stw	zero,-4(fp)
  8020a4:	00001a06 	br	802110 <isBulletCollidingWithPlayer+0xd0>
	}

	if (bullet->x >= player->x &&
  8020a8:	e0bffe17 	ldw	r2,-8(fp)
  8020ac:	10c00017 	ldw	r3,0(r2)
  8020b0:	e0bffd17 	ldw	r2,-12(fp)
  8020b4:	10800017 	ldw	r2,0(r2)
  8020b8:	18801416 	blt	r3,r2,80210c <isBulletCollidingWithPlayer+0xcc>
  8020bc:	e0bffe17 	ldw	r2,-8(fp)
  8020c0:	10c00017 	ldw	r3,0(r2)
  8020c4:	e0bffd17 	ldw	r2,-12(fp)
  8020c8:	10800017 	ldw	r2,0(r2)
  8020cc:	10800784 	addi	r2,r2,30
  8020d0:	10c00e16 	blt	r2,r3,80210c <isBulletCollidingWithPlayer+0xcc>
		bullet->x <= player->x + PLAYER_WIDTH) {
		// Have x region
		
		if (bullet->y >= player->y &&
  8020d4:	e0bffe17 	ldw	r2,-8(fp)
  8020d8:	10c00217 	ldw	r3,8(r2)
  8020dc:	e0bffd17 	ldw	r2,-12(fp)
  8020e0:	10800217 	ldw	r2,8(r2)
  8020e4:	18800916 	blt	r3,r2,80210c <isBulletCollidingWithPlayer+0xcc>
  8020e8:	e0bffe17 	ldw	r2,-8(fp)
  8020ec:	10c00217 	ldw	r3,8(r2)
  8020f0:	e0bffd17 	ldw	r2,-12(fp)
  8020f4:	10800217 	ldw	r2,8(r2)
  8020f8:	10800784 	addi	r2,r2,30
  8020fc:	10c00316 	blt	r2,r3,80210c <isBulletCollidingWithPlayer+0xcc>
			bullet->y <= player->y + PLAYER_HEIGHT) {
			// Have y
			
			return TRUE;
  802100:	00800044 	movi	r2,1
  802104:	e0bfff15 	stw	r2,-4(fp)
  802108:	00000106 	br	802110 <isBulletCollidingWithPlayer+0xd0>
		}
	}
	return FALSE;
  80210c:	e03fff15 	stw	zero,-4(fp)
  802110:	e0bfff17 	ldw	r2,-4(fp)
}
  802114:	e037883a 	mov	sp,fp
  802118:	dfc00117 	ldw	ra,4(sp)
  80211c:	df000017 	ldw	fp,0(sp)
  802120:	dec00204 	addi	sp,sp,8
  802124:	f800283a 	ret

00802128 <doSharkBulletCollision>:

void doSharkBulletCollision(void) {
  802128:	defffb04 	addi	sp,sp,-20
  80212c:	dfc00415 	stw	ra,16(sp)
  802130:	df000315 	stw	fp,12(sp)
  802134:	df000304 	addi	fp,sp,12
	Bullet *bulletCursor = playerBulletList;
  802138:	008020b4 	movhi	r2,130
  80213c:	10bed604 	addi	r2,r2,-1192
  802140:	10800017 	ldw	r2,0(r2)
  802144:	e0bfff15 	stw	r2,-4(fp)
	Shark *toKill = NULL;
  802148:	e03ffe15 	stw	zero,-8(fp)
	int i = 0;
  80214c:	e03ffd15 	stw	zero,-12(fp)
	while (bulletCursor != NULL
  802150:	00000e06 	br	80218c <doSharkBulletCollision+0x64>
			&& bulletCursor->type == PLAYERBULLET
			&& i < NUM_BULLETS) {
		toKill = findSharkIfHit(bulletCursor);
  802154:	e13fff17 	ldw	r4,-4(fp)
  802158:	0801eb80 	call	801eb8 <findSharkIfHit>
  80215c:	e0bffe15 	stw	r2,-8(fp)
		if (toKill != NULL) {
  802160:	e0bffe17 	ldw	r2,-8(fp)
  802164:	1005003a 	cmpeq	r2,r2,zero
  802168:	1000021e 	bne	r2,zero,802174 <doSharkBulletCollision+0x4c>
			killShark(toKill);
  80216c:	e13ffe17 	ldw	r4,-8(fp)
  802170:	0804b080 	call	804b08 <killShark>
		}
		bulletCursor = bulletCursor->next;
  802174:	e0bfff17 	ldw	r2,-4(fp)
  802178:	10800617 	ldw	r2,24(r2)
  80217c:	e0bfff15 	stw	r2,-4(fp)
		i++;
  802180:	e0bffd17 	ldw	r2,-12(fp)
  802184:	10800044 	addi	r2,r2,1
  802188:	e0bffd15 	stw	r2,-12(fp)

void doSharkBulletCollision(void) {
	Bullet *bulletCursor = playerBulletList;
	Shark *toKill = NULL;
	int i = 0;
	while (bulletCursor != NULL
  80218c:	e0bfff17 	ldw	r2,-4(fp)
  802190:	1005003a 	cmpeq	r2,r2,zero
  802194:	1000071e 	bne	r2,zero,8021b4 <doSharkBulletCollision+0x8c>
  802198:	e0bfff17 	ldw	r2,-4(fp)
  80219c:	10800417 	ldw	r2,16(r2)
  8021a0:	1004c03a 	cmpne	r2,r2,zero
  8021a4:	1000031e 	bne	r2,zero,8021b4 <doSharkBulletCollision+0x8c>
  8021a8:	e0bffd17 	ldw	r2,-12(fp)
  8021ac:	10802010 	cmplti	r2,r2,128
  8021b0:	103fe81e 	bne	r2,zero,802154 <doSharkBulletCollision+0x2c>
			killShark(toKill);
		}
		bulletCursor = bulletCursor->next;
		i++;
	}
}
  8021b4:	e037883a 	mov	sp,fp
  8021b8:	dfc00117 	ldw	ra,4(sp)
  8021bc:	df000017 	ldw	fp,0(sp)
  8021c0:	dec00204 	addi	sp,sp,8
  8021c4:	f800283a 	ret

008021c8 <doPlayerBulletCollision>:

void doPlayerBulletCollision(void) {
  8021c8:	defffc04 	addi	sp,sp,-16
  8021cc:	dfc00315 	stw	ra,12(sp)
  8021d0:	df000215 	stw	fp,8(sp)
  8021d4:	df000204 	addi	fp,sp,8
	Bullet *bulletCursor = sharkBulletList;
  8021d8:	008020b4 	movhi	r2,130
  8021dc:	10bed704 	addi	r2,r2,-1188
  8021e0:	10800017 	ldw	r2,0(r2)
  8021e4:	e0bfff15 	stw	r2,-4(fp)
	int i = 0;
  8021e8:	e03ffe15 	stw	zero,-8(fp)
	while (bulletCursor != NULL
  8021ec:	00000e06 	br	802228 <doPlayerBulletCollision+0x60>
			&& bulletCursor->type == SHARKBULLET
			&& i < NUM_BULLETS) {
		if (isBulletCollidingWithPlayer(&player, bulletCursor) == TRUE) {
  8021f0:	010020b4 	movhi	r4,130
  8021f4:	213f9e04 	addi	r4,r4,-392
  8021f8:	e17fff17 	ldw	r5,-4(fp)
  8021fc:	08020400 	call	802040 <isBulletCollidingWithPlayer>
  802200:	10800058 	cmpnei	r2,r2,1
  802204:	1000021e 	bne	r2,zero,802210 <doPlayerBulletCollision+0x48>
			hitPlayer();
  802208:	08030f40 	call	8030f4 <hitPlayer>
			break;
  80220c:	00001006 	br	802250 <doPlayerBulletCollision+0x88>
		}
		i++;
  802210:	e0bffe17 	ldw	r2,-8(fp)
  802214:	10800044 	addi	r2,r2,1
  802218:	e0bffe15 	stw	r2,-8(fp)
		bulletCursor = bulletCursor->next;
  80221c:	e0bfff17 	ldw	r2,-4(fp)
  802220:	10800617 	ldw	r2,24(r2)
  802224:	e0bfff15 	stw	r2,-4(fp)
}

void doPlayerBulletCollision(void) {
	Bullet *bulletCursor = sharkBulletList;
	int i = 0;
	while (bulletCursor != NULL
  802228:	e0bfff17 	ldw	r2,-4(fp)
  80222c:	1005003a 	cmpeq	r2,r2,zero
  802230:	1000071e 	bne	r2,zero,802250 <doPlayerBulletCollision+0x88>
  802234:	e0bfff17 	ldw	r2,-4(fp)
  802238:	10800417 	ldw	r2,16(r2)
  80223c:	10800058 	cmpnei	r2,r2,1
  802240:	1000031e 	bne	r2,zero,802250 <doPlayerBulletCollision+0x88>
  802244:	e0bffe17 	ldw	r2,-8(fp)
  802248:	10802010 	cmplti	r2,r2,128
  80224c:	103fe81e 	bne	r2,zero,8021f0 <doPlayerBulletCollision+0x28>
			break;
		}
		i++;
		bulletCursor = bulletCursor->next;
	}
}
  802250:	e037883a 	mov	sp,fp
  802254:	dfc00117 	ldw	ra,4(sp)
  802258:	df000017 	ldw	fp,0(sp)
  80225c:	dec00204 	addi	sp,sp,8
  802260:	f800283a 	ret

00802264 <setupDisplacement>:
void makeDownRight(Displacement *disp);
void makeDownLeft(Displacement *disp);
void makeUpRight(Displacement *disp);
void makeUpLeft(Displacement *disp);

void setupDisplacement(void) {
  802264:	defffe04 	addi	sp,sp,-8
  802268:	dfc00115 	stw	ra,4(sp)
  80226c:	df000015 	stw	fp,0(sp)
  802270:	d839883a 	mov	fp,sp
	right.dx = 1;
  802274:	00800044 	movi	r2,1
  802278:	d0a71f0d 	sth	r2,-25476(gp)
	right.dy = 0;
  80227c:	008020b4 	movhi	r2,130
  802280:	10beda84 	addi	r2,r2,-1174
  802284:	1000000d 	sth	zero,0(r2)

	left.dx = -1;
  802288:	00bfffc4 	movi	r2,-1
  80228c:	d0a7210d 	sth	r2,-25468(gp)
	left.dy = 0;
  802290:	008020b4 	movhi	r2,130
  802294:	10bedc84 	addi	r2,r2,-1166
  802298:	1000000d 	sth	zero,0(r2)

	up.dx = 0;
  80229c:	d027230d 	sth	zero,-25460(gp)
	up.dy = -1;
  8022a0:	00c020b4 	movhi	r3,130
  8022a4:	18fede84 	addi	r3,r3,-1158
  8022a8:	00bfffc4 	movi	r2,-1
  8022ac:	1880000d 	sth	r2,0(r3)

	down.dx = 0;
  8022b0:	d027250d 	sth	zero,-25452(gp)
	down.dy = 1;
  8022b4:	00c020b4 	movhi	r3,130
  8022b8:	18fee084 	addi	r3,r3,-1150
  8022bc:	00800044 	movi	r2,1
  8022c0:	1880000d 	sth	r2,0(r3)

	setupVerticalDisplacementFunction();
  8022c4:	08022f00 	call	8022f0 <setupVerticalDisplacementFunction>
	setupCircularDisplacementFunction();
  8022c8:	08023f40 	call	8023f4 <setupCircularDisplacementFunction>
	setupArcDisplacementFunction();
  8022cc:	08024e40 	call	8024e4 <setupArcDisplacementFunction>

	printf("Setup displacement functions.\n");
  8022d0:	010020b4 	movhi	r4,130
  8022d4:	212e4e04 	addi	r4,r4,-18120
  8022d8:	080971c0 	call	80971c <puts>
}
  8022dc:	e037883a 	mov	sp,fp
  8022e0:	dfc00117 	ldw	ra,4(sp)
  8022e4:	df000017 	ldw	fp,0(sp)
  8022e8:	dec00204 	addi	sp,sp,8
  8022ec:	f800283a 	ret

008022f0 <setupVerticalDisplacementFunction>:

void setupVerticalDisplacementFunction(void) {
  8022f0:	defffc04 	addi	sp,sp,-16
  8022f4:	dfc00315 	stw	ra,12(sp)
  8022f8:	df000215 	stw	fp,8(sp)
  8022fc:	df000204 	addi	fp,sp,8
	int i;
	Displacement *ptr;
	for (i = 0; i < DISPLACEMENT_LENGTH; i++) {
  802300:	e03fff15 	stw	zero,-4(fp)
  802304:	00002506 	br	80239c <setupVerticalDisplacementFunction+0xac>
		ptr = &verticalDisplacementFunctionUp[i];
  802308:	e0bfff17 	ldw	r2,-4(fp)
  80230c:	100490fa 	slli	r2,r2,3
  802310:	1007883a 	mov	r3,r2
  802314:	008020b4 	movhi	r2,130
  802318:	1084a204 	addi	r2,r2,4744
  80231c:	1885883a 	add	r2,r3,r2
  802320:	e0bffe15 	stw	r2,-8(fp)
		makeUp(ptr);
  802324:	e13ffe17 	ldw	r4,-8(fp)
  802328:	08026b00 	call	8026b0 <makeUp>
		ptr->next = &verticalDisplacementFunctionUp[i + 1];
  80232c:	e0bfff17 	ldw	r2,-4(fp)
  802330:	100490fa 	slli	r2,r2,3
  802334:	1007883a 	mov	r3,r2
  802338:	008020b4 	movhi	r2,130
  80233c:	1084a404 	addi	r2,r2,4752
  802340:	1887883a 	add	r3,r3,r2
  802344:	e0bffe17 	ldw	r2,-8(fp)
  802348:	10c00115 	stw	r3,4(r2)

		ptr = &verticalDisplacementFunctionDown[i];
  80234c:	e0bfff17 	ldw	r2,-4(fp)
  802350:	100490fa 	slli	r2,r2,3
  802354:	1007883a 	mov	r3,r2
  802358:	008020b4 	movhi	r2,130
  80235c:	1083a204 	addi	r2,r2,3720
  802360:	1885883a 	add	r2,r3,r2
  802364:	e0bffe15 	stw	r2,-8(fp)
		makeDown(ptr);
  802368:	e13ffe17 	ldw	r4,-8(fp)
  80236c:	08026f00 	call	8026f0 <makeDown>
		ptr-> next = &verticalDisplacementFunctionDown[i + 1];
  802370:	e0bfff17 	ldw	r2,-4(fp)
  802374:	100490fa 	slli	r2,r2,3
  802378:	1007883a 	mov	r3,r2
  80237c:	008020b4 	movhi	r2,130
  802380:	1083a404 	addi	r2,r2,3728
  802384:	1887883a 	add	r3,r3,r2
  802388:	e0bffe17 	ldw	r2,-8(fp)
  80238c:	10c00115 	stw	r3,4(r2)
}

void setupVerticalDisplacementFunction(void) {
	int i;
	Displacement *ptr;
	for (i = 0; i < DISPLACEMENT_LENGTH; i++) {
  802390:	e0bfff17 	ldw	r2,-4(fp)
  802394:	10800044 	addi	r2,r2,1
  802398:	e0bfff15 	stw	r2,-4(fp)
  80239c:	e0bfff17 	ldw	r2,-4(fp)
  8023a0:	10802010 	cmplti	r2,r2,128
  8023a4:	103fd81e 	bne	r2,zero,802308 <setupVerticalDisplacementFunction+0x18>

		ptr = &verticalDisplacementFunctionDown[i];
		makeDown(ptr);
		ptr-> next = &verticalDisplacementFunctionDown[i + 1];
	}
	ptr = &verticalDisplacementFunctionUp[DISPLACEMENT_LENGTH];
  8023a8:	008020b4 	movhi	r2,130
  8023ac:	1085a204 	addi	r2,r2,5768
  8023b0:	e0bffe15 	stw	r2,-8(fp)
	ptr->next = verticalDisplacementFunctionUp;
  8023b4:	e0fffe17 	ldw	r3,-8(fp)
  8023b8:	008020b4 	movhi	r2,130
  8023bc:	1084a204 	addi	r2,r2,4744
  8023c0:	18800115 	stw	r2,4(r3)
	ptr = &verticalDisplacementFunctionDown[DISPLACEMENT_LENGTH];
  8023c4:	008020b4 	movhi	r2,130
  8023c8:	1084a204 	addi	r2,r2,4744
  8023cc:	e0bffe15 	stw	r2,-8(fp)
	ptr->next = verticalDisplacementFunctionDown;
  8023d0:	e0fffe17 	ldw	r3,-8(fp)
  8023d4:	008020b4 	movhi	r2,130
  8023d8:	1083a204 	addi	r2,r2,3720
  8023dc:	18800115 	stw	r2,4(r3)
}
  8023e0:	e037883a 	mov	sp,fp
  8023e4:	dfc00117 	ldw	ra,4(sp)
  8023e8:	df000017 	ldw	fp,0(sp)
  8023ec:	dec00204 	addi	sp,sp,8
  8023f0:	f800283a 	ret

008023f4 <setupCircularDisplacementFunction>:

void setupCircularDisplacementFunction(void) {
  8023f4:	defffc04 	addi	sp,sp,-16
  8023f8:	dfc00315 	stw	ra,12(sp)
  8023fc:	df000215 	stw	fp,8(sp)
  802400:	df000204 	addi	fp,sp,8
	int i = 0;
  802404:	e03fff15 	stw	zero,-4(fp)
	Displacement *ptr;
	for (i = 0; i < DISPLACEMENT_LENGTH; i++) {
  802408:	e03fff15 	stw	zero,-4(fp)
  80240c:	00002606 	br	8024a8 <setupCircularDisplacementFunction+0xb4>
		ptr = &circularDisplacementFunction[i];
  802410:	e0bfff17 	ldw	r2,-4(fp)
  802414:	100490fa 	slli	r2,r2,3
  802418:	1007883a 	mov	r3,r2
  80241c:	008020b4 	movhi	r2,130
  802420:	1085a204 	addi	r2,r2,5768
  802424:	1885883a 	add	r2,r3,r2
  802428:	e0bffe15 	stw	r2,-8(fp)
		if (i < DISPLACEMENT_LENGTH / 4) {
  80242c:	e0bfff17 	ldw	r2,-4(fp)
  802430:	10800808 	cmpgei	r2,r2,32
  802434:	1000031e 	bne	r2,zero,802444 <setupCircularDisplacementFunction+0x50>
			makeRight(ptr);
  802438:	e13ffe17 	ldw	r4,-8(fp)
  80243c:	08026300 	call	802630 <makeRight>
  802440:	00000e06 	br	80247c <setupCircularDisplacementFunction+0x88>
		} else if (i < DISPLACEMENT_LENGTH / 2) {
  802444:	e0bfff17 	ldw	r2,-4(fp)
  802448:	10801008 	cmpgei	r2,r2,64
  80244c:	1000031e 	bne	r2,zero,80245c <setupCircularDisplacementFunction+0x68>
			makeDown(ptr);
  802450:	e13ffe17 	ldw	r4,-8(fp)
  802454:	08026f00 	call	8026f0 <makeDown>
  802458:	00000806 	br	80247c <setupCircularDisplacementFunction+0x88>
		} else if (i < 3 * DISPLACEMENT_LENGTH / 4) {
  80245c:	e0bfff17 	ldw	r2,-4(fp)
  802460:	10801808 	cmpgei	r2,r2,96
  802464:	1000031e 	bne	r2,zero,802474 <setupCircularDisplacementFunction+0x80>
			makeLeft(ptr);
  802468:	e13ffe17 	ldw	r4,-8(fp)
  80246c:	08026700 	call	802670 <makeLeft>
  802470:	00000206 	br	80247c <setupCircularDisplacementFunction+0x88>
		} else {
			makeUp(ptr);
  802474:	e13ffe17 	ldw	r4,-8(fp)
  802478:	08026b00 	call	8026b0 <makeUp>
		}
		ptr->next = &circularDisplacementFunction[i + 1];
  80247c:	e0bfff17 	ldw	r2,-4(fp)
  802480:	100490fa 	slli	r2,r2,3
  802484:	1007883a 	mov	r3,r2
  802488:	008020b4 	movhi	r2,130
  80248c:	1085a404 	addi	r2,r2,5776
  802490:	1887883a 	add	r3,r3,r2
  802494:	e0bffe17 	ldw	r2,-8(fp)
  802498:	10c00115 	stw	r3,4(r2)
}

void setupCircularDisplacementFunction(void) {
	int i = 0;
	Displacement *ptr;
	for (i = 0; i < DISPLACEMENT_LENGTH; i++) {
  80249c:	e0bfff17 	ldw	r2,-4(fp)
  8024a0:	10800044 	addi	r2,r2,1
  8024a4:	e0bfff15 	stw	r2,-4(fp)
  8024a8:	e0bfff17 	ldw	r2,-4(fp)
  8024ac:	10802010 	cmplti	r2,r2,128
  8024b0:	103fd71e 	bne	r2,zero,802410 <setupCircularDisplacementFunction+0x1c>
		} else {
			makeUp(ptr);
		}
		ptr->next = &circularDisplacementFunction[i + 1];
	}
	ptr = &circularDisplacementFunction[DISPLACEMENT_LENGTH];
  8024b4:	008020b4 	movhi	r2,130
  8024b8:	1086a204 	addi	r2,r2,6792
  8024bc:	e0bffe15 	stw	r2,-8(fp)
	ptr->next = circularDisplacementFunction;
  8024c0:	e0fffe17 	ldw	r3,-8(fp)
  8024c4:	008020b4 	movhi	r2,130
  8024c8:	1085a204 	addi	r2,r2,5768
  8024cc:	18800115 	stw	r2,4(r3)
}
  8024d0:	e037883a 	mov	sp,fp
  8024d4:	dfc00117 	ldw	ra,4(sp)
  8024d8:	df000017 	ldw	fp,0(sp)
  8024dc:	dec00204 	addi	sp,sp,8
  8024e0:	f800283a 	ret

008024e4 <setupArcDisplacementFunction>:

void setupArcDisplacementFunction(void) {
  8024e4:	defffc04 	addi	sp,sp,-16
  8024e8:	dfc00315 	stw	ra,12(sp)
  8024ec:	df000215 	stw	fp,8(sp)
  8024f0:	df000204 	addi	fp,sp,8
	int i;
	Displacement *ptr;
	for (i = 0; i < DISPLACEMENT_LENGTH; i++) {
  8024f4:	e03fff15 	stw	zero,-4(fp)
  8024f8:	00001a06 	br	802564 <setupArcDisplacementFunction+0x80>
		ptr = &arcDisplacementFunction[i];
  8024fc:	e0bfff17 	ldw	r2,-4(fp)
  802500:	100490fa 	slli	r2,r2,3
  802504:	1007883a 	mov	r3,r2
  802508:	008020b4 	movhi	r2,130
  80250c:	1087a204 	addi	r2,r2,7816
  802510:	1885883a 	add	r2,r3,r2
  802514:	e0bffe15 	stw	r2,-8(fp)
		if (i < DISPLACEMENT_LENGTH / 2) {
  802518:	e0bfff17 	ldw	r2,-4(fp)
  80251c:	10801008 	cmpgei	r2,r2,64
  802520:	1000031e 	bne	r2,zero,802530 <setupArcDisplacementFunction+0x4c>
			makeDownLeft(ptr);
  802524:	e13ffe17 	ldw	r4,-8(fp)
  802528:	08027700 	call	802770 <makeDownLeft>
  80252c:	00000206 	br	802538 <setupArcDisplacementFunction+0x54>
		} else {
			makeDownRight(ptr);
  802530:	e13ffe17 	ldw	r4,-8(fp)
  802534:	08027300 	call	802730 <makeDownRight>
		}
		ptr->next = &arcDisplacementFunction[i + 1];
  802538:	e0bfff17 	ldw	r2,-4(fp)
  80253c:	100490fa 	slli	r2,r2,3
  802540:	1007883a 	mov	r3,r2
  802544:	008020b4 	movhi	r2,130
  802548:	1087a404 	addi	r2,r2,7824
  80254c:	1887883a 	add	r3,r3,r2
  802550:	e0bffe17 	ldw	r2,-8(fp)
  802554:	10c00115 	stw	r3,4(r2)
}

void setupArcDisplacementFunction(void) {
	int i;
	Displacement *ptr;
	for (i = 0; i < DISPLACEMENT_LENGTH; i++) {
  802558:	e0bfff17 	ldw	r2,-4(fp)
  80255c:	10800044 	addi	r2,r2,1
  802560:	e0bfff15 	stw	r2,-4(fp)
  802564:	e0bfff17 	ldw	r2,-4(fp)
  802568:	10802010 	cmplti	r2,r2,128
  80256c:	103fe31e 	bne	r2,zero,8024fc <setupArcDisplacementFunction+0x18>
		} else {
			makeDownRight(ptr);
		}
		ptr->next = &arcDisplacementFunction[i + 1];
	}
	ptr = &arcDisplacementFunction[DISPLACEMENT_LENGTH];
  802570:	008020b4 	movhi	r2,130
  802574:	1088a204 	addi	r2,r2,8840
  802578:	e0bffe15 	stw	r2,-8(fp)
	ptr->next = arcDisplacementFunction;
  80257c:	e0fffe17 	ldw	r3,-8(fp)
  802580:	008020b4 	movhi	r2,130
  802584:	1087a204 	addi	r2,r2,7816
  802588:	18800115 	stw	r2,4(r3)
}
  80258c:	e037883a 	mov	sp,fp
  802590:	dfc00117 	ldw	ra,4(sp)
  802594:	df000017 	ldw	fp,0(sp)
  802598:	dec00204 	addi	sp,sp,8
  80259c:	f800283a 	ret

008025a0 <setupNoDisplcaementFunction>:

void setupNoDisplcaementFunction(void) {
  8025a0:	defffe04 	addi	sp,sp,-8
  8025a4:	df000115 	stw	fp,4(sp)
  8025a8:	df000104 	addi	fp,sp,4
	int i;
	for (i = 0; i < DISPLACEMENT_LENGTH; i++) {
  8025ac:	e03fff15 	stw	zero,-4(fp)
  8025b0:	00001806 	br	802614 <setupNoDisplcaementFunction+0x74>
		doNotMove[i].dx = 0;
  8025b4:	e0bfff17 	ldw	r2,-4(fp)
  8025b8:	00c020b4 	movhi	r3,130
  8025bc:	18c6a204 	addi	r3,r3,6792
  8025c0:	100490fa 	slli	r2,r2,3
  8025c4:	10c5883a 	add	r2,r2,r3
  8025c8:	1000000d 	sth	zero,0(r2)
		doNotMove[i].dy = 0;
  8025cc:	e0bfff17 	ldw	r2,-4(fp)
  8025d0:	00c020b4 	movhi	r3,130
  8025d4:	18c6a204 	addi	r3,r3,6792
  8025d8:	100490fa 	slli	r2,r2,3
  8025dc:	10c5883a 	add	r2,r2,r3
  8025e0:	1000008d 	sth	zero,2(r2)
		doNotMove[i].next = doNotMove;
  8025e4:	e0bfff17 	ldw	r2,-4(fp)
  8025e8:	00c020b4 	movhi	r3,130
  8025ec:	18c6a204 	addi	r3,r3,6792
  8025f0:	100490fa 	slli	r2,r2,3
  8025f4:	10c5883a 	add	r2,r2,r3
  8025f8:	10c00104 	addi	r3,r2,4
  8025fc:	008020b4 	movhi	r2,130
  802600:	1086a204 	addi	r2,r2,6792
  802604:	18800015 	stw	r2,0(r3)
	ptr->next = arcDisplacementFunction;
}

void setupNoDisplcaementFunction(void) {
	int i;
	for (i = 0; i < DISPLACEMENT_LENGTH; i++) {
  802608:	e0bfff17 	ldw	r2,-4(fp)
  80260c:	10800044 	addi	r2,r2,1
  802610:	e0bfff15 	stw	r2,-4(fp)
  802614:	e0bfff17 	ldw	r2,-4(fp)
  802618:	10802010 	cmplti	r2,r2,128
  80261c:	103fe51e 	bne	r2,zero,8025b4 <setupNoDisplcaementFunction+0x14>
		doNotMove[i].dx = 0;
		doNotMove[i].dy = 0;
		doNotMove[i].next = doNotMove;
	}
}
  802620:	e037883a 	mov	sp,fp
  802624:	df000017 	ldw	fp,0(sp)
  802628:	dec00104 	addi	sp,sp,4
  80262c:	f800283a 	ret

00802630 <makeRight>:

void makeRight(Displacement *disp) {
  802630:	defffe04 	addi	sp,sp,-8
  802634:	df000115 	stw	fp,4(sp)
  802638:	df000104 	addi	fp,sp,4
  80263c:	e13fff15 	stw	r4,-4(fp)
	disp->dx = right.dx;
  802640:	d0e71f0b 	ldhu	r3,-25476(gp)
  802644:	e0bfff17 	ldw	r2,-4(fp)
  802648:	10c0000d 	sth	r3,0(r2)
	disp->dy = right.dy;
  80264c:	008020b4 	movhi	r2,130
  802650:	10beda84 	addi	r2,r2,-1174
  802654:	10c0000b 	ldhu	r3,0(r2)
  802658:	e0bfff17 	ldw	r2,-4(fp)
  80265c:	10c0008d 	sth	r3,2(r2)
}
  802660:	e037883a 	mov	sp,fp
  802664:	df000017 	ldw	fp,0(sp)
  802668:	dec00104 	addi	sp,sp,4
  80266c:	f800283a 	ret

00802670 <makeLeft>:
void makeLeft(Displacement *disp) {
  802670:	defffe04 	addi	sp,sp,-8
  802674:	df000115 	stw	fp,4(sp)
  802678:	df000104 	addi	fp,sp,4
  80267c:	e13fff15 	stw	r4,-4(fp)
	disp->dx = left.dx;
  802680:	d0e7210b 	ldhu	r3,-25468(gp)
  802684:	e0bfff17 	ldw	r2,-4(fp)
  802688:	10c0000d 	sth	r3,0(r2)
	disp->dy = left.dy;
  80268c:	008020b4 	movhi	r2,130
  802690:	10bedc84 	addi	r2,r2,-1166
  802694:	10c0000b 	ldhu	r3,0(r2)
  802698:	e0bfff17 	ldw	r2,-4(fp)
  80269c:	10c0008d 	sth	r3,2(r2)
}
  8026a0:	e037883a 	mov	sp,fp
  8026a4:	df000017 	ldw	fp,0(sp)
  8026a8:	dec00104 	addi	sp,sp,4
  8026ac:	f800283a 	ret

008026b0 <makeUp>:
void makeUp(Displacement *disp) {
  8026b0:	defffe04 	addi	sp,sp,-8
  8026b4:	df000115 	stw	fp,4(sp)
  8026b8:	df000104 	addi	fp,sp,4
  8026bc:	e13fff15 	stw	r4,-4(fp)
	disp->dx = up.dx;
  8026c0:	d0e7230b 	ldhu	r3,-25460(gp)
  8026c4:	e0bfff17 	ldw	r2,-4(fp)
  8026c8:	10c0000d 	sth	r3,0(r2)
	disp->dy = up.dy;
  8026cc:	008020b4 	movhi	r2,130
  8026d0:	10bede84 	addi	r2,r2,-1158
  8026d4:	10c0000b 	ldhu	r3,0(r2)
  8026d8:	e0bfff17 	ldw	r2,-4(fp)
  8026dc:	10c0008d 	sth	r3,2(r2)
}
  8026e0:	e037883a 	mov	sp,fp
  8026e4:	df000017 	ldw	fp,0(sp)
  8026e8:	dec00104 	addi	sp,sp,4
  8026ec:	f800283a 	ret

008026f0 <makeDown>:

void makeDown(Displacement *disp) {
  8026f0:	defffe04 	addi	sp,sp,-8
  8026f4:	df000115 	stw	fp,4(sp)
  8026f8:	df000104 	addi	fp,sp,4
  8026fc:	e13fff15 	stw	r4,-4(fp)
	disp->dx = down.dx;
  802700:	d0e7250b 	ldhu	r3,-25452(gp)
  802704:	e0bfff17 	ldw	r2,-4(fp)
  802708:	10c0000d 	sth	r3,0(r2)
	disp->dy = down.dy;
  80270c:	008020b4 	movhi	r2,130
  802710:	10bee084 	addi	r2,r2,-1150
  802714:	10c0000b 	ldhu	r3,0(r2)
  802718:	e0bfff17 	ldw	r2,-4(fp)
  80271c:	10c0008d 	sth	r3,2(r2)
}
  802720:	e037883a 	mov	sp,fp
  802724:	df000017 	ldw	fp,0(sp)
  802728:	dec00104 	addi	sp,sp,4
  80272c:	f800283a 	ret

00802730 <makeDownRight>:

void makeDownRight(Displacement *disp) {
  802730:	defffe04 	addi	sp,sp,-8
  802734:	df000115 	stw	fp,4(sp)
  802738:	df000104 	addi	fp,sp,4
  80273c:	e13fff15 	stw	r4,-4(fp)
	disp->dx = right.dx;
  802740:	d0e71f0b 	ldhu	r3,-25476(gp)
  802744:	e0bfff17 	ldw	r2,-4(fp)
  802748:	10c0000d 	sth	r3,0(r2)
	disp->dy = down.dy;
  80274c:	008020b4 	movhi	r2,130
  802750:	10bee084 	addi	r2,r2,-1150
  802754:	10c0000b 	ldhu	r3,0(r2)
  802758:	e0bfff17 	ldw	r2,-4(fp)
  80275c:	10c0008d 	sth	r3,2(r2)
}
  802760:	e037883a 	mov	sp,fp
  802764:	df000017 	ldw	fp,0(sp)
  802768:	dec00104 	addi	sp,sp,4
  80276c:	f800283a 	ret

00802770 <makeDownLeft>:

void makeDownLeft(Displacement *disp) {
  802770:	defffe04 	addi	sp,sp,-8
  802774:	df000115 	stw	fp,4(sp)
  802778:	df000104 	addi	fp,sp,4
  80277c:	e13fff15 	stw	r4,-4(fp)
	disp->dx = left.dx;
  802780:	d0e7210b 	ldhu	r3,-25468(gp)
  802784:	e0bfff17 	ldw	r2,-4(fp)
  802788:	10c0000d 	sth	r3,0(r2)
	disp->dy = down.dy;
  80278c:	008020b4 	movhi	r2,130
  802790:	10bee084 	addi	r2,r2,-1150
  802794:	10c0000b 	ldhu	r3,0(r2)
  802798:	e0bfff17 	ldw	r2,-4(fp)
  80279c:	10c0008d 	sth	r3,2(r2)
}
  8027a0:	e037883a 	mov	sp,fp
  8027a4:	df000017 	ldw	fp,0(sp)
  8027a8:	dec00104 	addi	sp,sp,4
  8027ac:	f800283a 	ret

008027b0 <makeUpRight>:

void makeUpRight(Displacement *disp) {
  8027b0:	defffe04 	addi	sp,sp,-8
  8027b4:	df000115 	stw	fp,4(sp)
  8027b8:	df000104 	addi	fp,sp,4
  8027bc:	e13fff15 	stw	r4,-4(fp)
	disp->dx = right.dx;
  8027c0:	d0e71f0b 	ldhu	r3,-25476(gp)
  8027c4:	e0bfff17 	ldw	r2,-4(fp)
  8027c8:	10c0000d 	sth	r3,0(r2)
	disp->dy = up.dy;
  8027cc:	008020b4 	movhi	r2,130
  8027d0:	10bede84 	addi	r2,r2,-1158
  8027d4:	10c0000b 	ldhu	r3,0(r2)
  8027d8:	e0bfff17 	ldw	r2,-4(fp)
  8027dc:	10c0008d 	sth	r3,2(r2)
}
  8027e0:	e037883a 	mov	sp,fp
  8027e4:	df000017 	ldw	fp,0(sp)
  8027e8:	dec00104 	addi	sp,sp,4
  8027ec:	f800283a 	ret

008027f0 <makeUpLeft>:

void makeUpLeft(Displacement *disp) {
  8027f0:	defffe04 	addi	sp,sp,-8
  8027f4:	df000115 	stw	fp,4(sp)
  8027f8:	df000104 	addi	fp,sp,4
  8027fc:	e13fff15 	stw	r4,-4(fp)
	disp->dx = left.dx;
  802800:	d0e7210b 	ldhu	r3,-25468(gp)
  802804:	e0bfff17 	ldw	r2,-4(fp)
  802808:	10c0000d 	sth	r3,0(r2)
	disp->dy = up.dy;
  80280c:	008020b4 	movhi	r2,130
  802810:	10bede84 	addi	r2,r2,-1158
  802814:	10c0000b 	ldhu	r3,0(r2)
  802818:	e0bfff17 	ldw	r2,-4(fp)
  80281c:	10c0008d 	sth	r3,2(r2)
}
  802820:	e037883a 	mov	sp,fp
  802824:	df000017 	ldw	fp,0(sp)
  802828:	dec00104 	addi	sp,sp,4
  80282c:	f800283a 	ret

00802830 <setToRandomDisplacement>:

void setToRandomDisplacement(Shark *shark) {
  802830:	defff804 	addi	sp,sp,-32
  802834:	dfc00715 	stw	ra,28(sp)
  802838:	df000615 	stw	fp,24(sp)
  80283c:	df000604 	addi	fp,sp,24
  802840:	e13ffd15 	stw	r4,-12(fp)
	srand(time(NULL));
  802844:	0009883a 	mov	r4,zero
  802848:	08098a80 	call	8098a8 <time>
  80284c:	1009883a 	mov	r4,r2
  802850:	08097300 	call	809730 <srand>
	int r = rand();
  802854:	080974c0 	call	80974c <rand>
  802858:	e0bffc15 	stw	r2,-16(fp)
	short int select = r % 4;
  80285c:	e0fffc17 	ldw	r3,-16(fp)
  802860:	00a00034 	movhi	r2,32768
  802864:	108000c4 	addi	r2,r2,3
  802868:	1886703a 	and	r3,r3,r2
  80286c:	e0ffff15 	stw	r3,-4(fp)
  802870:	e0ffff17 	ldw	r3,-4(fp)
  802874:	1804403a 	cmpge	r2,r3,zero
  802878:	10000a1e 	bne	r2,zero,8028a4 <setToRandomDisplacement+0x74>
  80287c:	e0bfff17 	ldw	r2,-4(fp)
  802880:	10bfffc4 	addi	r2,r2,-1
  802884:	e0bfff15 	stw	r2,-4(fp)
  802888:	00bfff04 	movi	r2,-4
  80288c:	e0ffff17 	ldw	r3,-4(fp)
  802890:	1886b03a 	or	r3,r3,r2
  802894:	e0ffff15 	stw	r3,-4(fp)
  802898:	e0bfff17 	ldw	r2,-4(fp)
  80289c:	10800044 	addi	r2,r2,1
  8028a0:	e0bfff15 	stw	r2,-4(fp)
  8028a4:	e0bfff17 	ldw	r2,-4(fp)
  8028a8:	e0bffb0d 	sth	r2,-20(fp)
	Displacement *ptr;
	switch (select) {
  8028ac:	e0fffb0f 	ldh	r3,-20(fp)
  8028b0:	e0fffe15 	stw	r3,-8(fp)
  8028b4:	e0fffe17 	ldw	r3,-8(fp)
  8028b8:	18800060 	cmpeqi	r2,r3,1
  8028bc:	1000121e 	bne	r2,zero,802908 <setToRandomDisplacement+0xd8>
  8028c0:	e0fffe17 	ldw	r3,-8(fp)
  8028c4:	18800088 	cmpgei	r2,r3,2
  8028c8:	1000041e 	bne	r2,zero,8028dc <setToRandomDisplacement+0xac>
  8028cc:	e0fffe17 	ldw	r3,-8(fp)
  8028d0:	1805003a 	cmpeq	r2,r3,zero
  8028d4:	1000081e 	bne	r2,zero,8028f8 <setToRandomDisplacement+0xc8>
  8028d8:	00001606 	br	802934 <setToRandomDisplacement+0x104>
  8028dc:	e0fffe17 	ldw	r3,-8(fp)
  8028e0:	188000a0 	cmpeqi	r2,r3,2
  8028e4:	10000c1e 	bne	r2,zero,802918 <setToRandomDisplacement+0xe8>
  8028e8:	e0fffe17 	ldw	r3,-8(fp)
  8028ec:	188000e0 	cmpeqi	r2,r3,3
  8028f0:	10000d1e 	bne	r2,zero,802928 <setToRandomDisplacement+0xf8>
  8028f4:	00000f06 	br	802934 <setToRandomDisplacement+0x104>
	case 0:
		ptr = verticalDisplacementFunctionUp;
  8028f8:	008020b4 	movhi	r2,130
  8028fc:	1084a204 	addi	r2,r2,4744
  802900:	e0bffa15 	stw	r2,-24(fp)
		break;
  802904:	00000b06 	br	802934 <setToRandomDisplacement+0x104>
	case 1:
		ptr = verticalDisplacementFunctionDown;
  802908:	008020b4 	movhi	r2,130
  80290c:	1083a204 	addi	r2,r2,3720
  802910:	e0bffa15 	stw	r2,-24(fp)
		break;
  802914:	00000706 	br	802934 <setToRandomDisplacement+0x104>
	case 2:
		ptr = circularDisplacementFunction;
  802918:	008020b4 	movhi	r2,130
  80291c:	1085a204 	addi	r2,r2,5768
  802920:	e0bffa15 	stw	r2,-24(fp)
		break;
  802924:	00000306 	br	802934 <setToRandomDisplacement+0x104>
	case 3:
		ptr = arcDisplacementFunction;
  802928:	008020b4 	movhi	r2,130
  80292c:	1087a204 	addi	r2,r2,7816
  802930:	e0bffa15 	stw	r2,-24(fp)
		break;
	}
	shark->displacement = ptr;
  802934:	e0fffd17 	ldw	r3,-12(fp)
  802938:	e0bffa17 	ldw	r2,-24(fp)
  80293c:	18800815 	stw	r2,32(r3)
}
  802940:	e037883a 	mov	sp,fp
  802944:	dfc00117 	ldw	ra,4(sp)
  802948:	df000017 	ldw	fp,0(sp)
  80294c:	dec00204 	addi	sp,sp,8
  802950:	f800283a 	ret

00802954 <handleKeyInput>:
#include "input.h"


void handleKeyInput(void){
  802954:	defffc04 	addi	sp,sp,-16
  802958:	dfc00315 	stw	ra,12(sp)
  80295c:	df000215 	stw	fp,8(sp)
  802960:	dc000115 	stw	r16,4(sp)
  802964:	df000104 	addi	fp,sp,4
	static short int edgeDetect0 = 0;
	static short int edgeDetect1 = 0;
	static short int edgeDetect2 = 0;
	static short int edgeDetect3 = 0;

	keyInput = IORD_8DIRECT(KEYS_BASE, 0);
  802968:	00804034 	movhi	r2,256
  80296c:	10842004 	addi	r2,r2,4224
  802970:	10800023 	ldbuio	r2,0(r2)
  802974:	d0a72905 	stb	r2,-25436(gp)
	char key0 = keyInput & 0x01;
  802978:	d0a72903 	ldbu	r2,-25436(gp)
  80297c:	1080004c 	andi	r2,r2,1
  802980:	e0bfffc5 	stb	r2,-1(fp)
	char key1 = keyInput & 0x02;
  802984:	d0a72903 	ldbu	r2,-25436(gp)
  802988:	1080008c 	andi	r2,r2,2
  80298c:	e0bfff85 	stb	r2,-2(fp)
	char key2 = keyInput & 0x04;
  802990:	d0a72903 	ldbu	r2,-25436(gp)
  802994:	1080010c 	andi	r2,r2,4
  802998:	e0bfff45 	stb	r2,-3(fp)
	char key3 = keyInput & 0x08;
  80299c:	d0a72903 	ldbu	r2,-25436(gp)
  8029a0:	1080020c 	andi	r2,r2,8
  8029a4:	e0bfff05 	stb	r2,-4(fp)

	//functionality for keys being held
	if(key1) {
  8029a8:	e0bfff87 	ldb	r2,-2(fp)
  8029ac:	1005003a 	cmpeq	r2,r2,zero
  8029b0:	1000021e 	bne	r2,zero,8029bc <handleKeyInput+0x68>
		moveDownPlayer();
  8029b4:	080300c0 	call	80300c <moveDownPlayer>
  8029b8:	00000606 	br	8029d4 <handleKeyInput+0x80>
	} else if (key2) {
  8029bc:	e0bfff47 	ldb	r2,-3(fp)
  8029c0:	1005003a 	cmpeq	r2,r2,zero
  8029c4:	1000021e 	bne	r2,zero,8029d0 <handleKeyInput+0x7c>
		moveUpPlayer();
  8029c8:	0802f800 	call	802f80 <moveUpPlayer>
  8029cc:	00000106 	br	8029d4 <handleKeyInput+0x80>
	} else {
		keepPlayerStationary();
  8029d0:	08030980 	call	803098 <keepPlayerStationary>
	}

	//functionality for keys being pressed.
	if (!key0 && (edgeDetect0 == 0)) {
  8029d4:	e0bfffc7 	ldb	r2,-1(fp)
  8029d8:	1004c03a 	cmpne	r2,r2,zero
  8029dc:	1000091e 	bne	r2,zero,802a04 <handleKeyInput+0xb0>
  8029e0:	d0a7288b 	ldhu	r2,-25438(gp)
  8029e4:	10bfffcc 	andi	r2,r2,65535
  8029e8:	10a0001c 	xori	r2,r2,32768
  8029ec:	10a00004 	addi	r2,r2,-32768
  8029f0:	1004c03a 	cmpne	r2,r2,zero
  8029f4:	1000031e 	bne	r2,zero,802a04 <handleKeyInput+0xb0>
		edgeDetect0 = 1;
  8029f8:	00800044 	movi	r2,1
  8029fc:	d0a7288d 	sth	r2,-25438(gp)
	} else {
		keepPlayerStationary();
	}

	//functionality for keys being pressed.
	if (!key0 && (edgeDetect0 == 0)) {
  802a00:	00002406 	br	802a94 <handleKeyInput+0x140>
		edgeDetect0 = 1;
	} else if (key0 && (edgeDetect0 == 1)) {
  802a04:	e0bfffc7 	ldb	r2,-1(fp)
  802a08:	1005003a 	cmpeq	r2,r2,zero
  802a0c:	1000211e 	bne	r2,zero,802a94 <handleKeyInput+0x140>
  802a10:	d0a7288b 	ldhu	r2,-25438(gp)
  802a14:	10bfffcc 	andi	r2,r2,65535
  802a18:	10a0001c 	xori	r2,r2,32768
  802a1c:	10a00004 	addi	r2,r2,-32768
  802a20:	10800058 	cmpnei	r2,r2,1
  802a24:	10001b1e 	bne	r2,zero,802a94 <handleKeyInput+0x140>
		edgeDetect0 = 0;
  802a28:	d027288d 	sth	zero,-25438(gp)
		createBullet(PLAYERBULLET, player.x + PLAYER_WIDTH + 1, player.y + 0.5 * PLAYER_HEIGHT);
  802a2c:	008020b4 	movhi	r2,130
  802a30:	10bf9e04 	addi	r2,r2,-392
  802a34:	10800017 	ldw	r2,0(r2)
  802a38:	140007c4 	addi	r16,r2,31
  802a3c:	008020b4 	movhi	r2,130
  802a40:	10bf9e04 	addi	r2,r2,-392
  802a44:	11000217 	ldw	r4,8(r2)
  802a48:	08082e40 	call	8082e4 <__floatsidf>
  802a4c:	100b883a 	mov	r5,r2
  802a50:	180d883a 	mov	r6,r3
  802a54:	2809883a 	mov	r4,r5
  802a58:	300b883a 	mov	r5,r6
  802a5c:	000d883a 	mov	r6,zero
  802a60:	01d00bb4 	movhi	r7,16430
  802a64:	08079ac0 	call	8079ac <__adddf3>
  802a68:	1009883a 	mov	r4,r2
  802a6c:	180b883a 	mov	r5,r3
  802a70:	2005883a 	mov	r2,r4
  802a74:	2807883a 	mov	r3,r5
  802a78:	1009883a 	mov	r4,r2
  802a7c:	180b883a 	mov	r5,r3
  802a80:	08083dc0 	call	8083dc <__fixdfsi>
  802a84:	100d883a 	mov	r6,r2
  802a88:	0009883a 	mov	r4,zero
  802a8c:	800b883a 	mov	r5,r16
  802a90:	08018800 	call	801880 <createBullet>
		hitPlayer(); // TEST only
		//updateCurrentPlayerScore(250);
		//playSharkDeath();
	}
	*/
}
  802a94:	e037883a 	mov	sp,fp
  802a98:	dfc00217 	ldw	ra,8(sp)
  802a9c:	df000117 	ldw	fp,4(sp)
  802aa0:	dc000017 	ldw	r16,0(sp)
  802aa4:	dec00304 	addi	sp,sp,12
  802aa8:	f800283a 	ret

00802aac <handleSwitchInput>:

void handleSwitchInput(void){
  802aac:	defffe04 	addi	sp,sp,-8
  802ab0:	dfc00115 	stw	ra,4(sp)
  802ab4:	df000015 	stw	fp,0(sp)
  802ab8:	d839883a 	mov	fp,sp
	static char SWInput;
	static short int edgeDetect = 0;
	static char prevSwInput = 0x03;
	static short int scoresShown = 0;
	SWInput = IORD_8DIRECT(SWITCHES_BASE, 0);
  802abc:	00804034 	movhi	r2,256
  802ac0:	10841804 	addi	r2,r2,4192
  802ac4:	10800023 	ldbuio	r2,0(r2)
  802ac8:	d0a72a85 	stb	r2,-25430(gp)

	if((SWInput & 0x0F) != (prevSwInput & 0x0F)) {
  802acc:	d0a72a83 	ldbu	r2,-25430(gp)
  802ad0:	10803fcc 	andi	r2,r2,255
  802ad4:	10c003cc 	andi	r3,r2,15
  802ad8:	d0a00303 	ldbu	r2,-32756(gp)
  802adc:	10803fcc 	andi	r2,r2,255
  802ae0:	108003cc 	andi	r2,r2,15
  802ae4:	18800526 	beq	r3,r2,802afc <handleSwitchInput+0x50>
		updateAudioWithVolume(SWInput);
  802ae8:	d0a72a83 	ldbu	r2,-25430(gp)
  802aec:	11003fcc 	andi	r4,r2,255
  802af0:	2100201c 	xori	r4,r4,128
  802af4:	213fe004 	addi	r4,r4,-128
  802af8:	0800d980 	call	800d98 <updateAudioWithVolume>
	}
	prevSwInput = SWInput;
  802afc:	d0a72a83 	ldbu	r2,-25430(gp)
  802b00:	d0a00305 	stb	r2,-32756(gp)

	if ((SWInput & 0x80) != 0) {
  802b04:	d0a72a83 	ldbu	r2,-25430(gp)
  802b08:	10803fcc 	andi	r2,r2,255
  802b0c:	1080201c 	xori	r2,r2,128
  802b10:	10bfe004 	addi	r2,r2,-128
  802b14:	1004403a 	cmpge	r2,r2,zero
  802b18:	10000b1e 	bne	r2,zero,802b48 <handleSwitchInput+0x9c>
		if(scoresShown == 0){
  802b1c:	d0a7298b 	ldhu	r2,-25434(gp)
  802b20:	10bfffcc 	andi	r2,r2,65535
  802b24:	10a0001c 	xori	r2,r2,32768
  802b28:	10a00004 	addi	r2,r2,-32768
  802b2c:	1004c03a 	cmpne	r2,r2,zero
  802b30:	1000021e 	bne	r2,zero,802b3c <handleSwitchInput+0x90>
			readHighScoreBoardFromSD();
  802b34:	08032900 	call	803290 <readHighScoreBoardFromSD>
			drawScore();
  802b38:	0803dec0 	call	803dec <drawScore>
		}
		scoresShown = 1;
  802b3c:	00800044 	movi	r2,1
  802b40:	d0a7298d 	sth	r2,-25434(gp)
  802b44:	00000906 	br	802b6c <handleSwitchInput+0xc0>
	} else {
		if(scoresShown == 1){
  802b48:	d0a7298b 	ldhu	r2,-25434(gp)
  802b4c:	10bfffcc 	andi	r2,r2,65535
  802b50:	10a0001c 	xori	r2,r2,32768
  802b54:	10a00004 	addi	r2,r2,-32768
  802b58:	10800058 	cmpnei	r2,r2,1
  802b5c:	1000021e 	bne	r2,zero,802b68 <handleSwitchInput+0xbc>
			clearScore();
  802b60:	08040240 	call	804024 <clearScore>
			drawInGameInfo();
  802b64:	08040500 	call	804050 <drawInGameInfo>
		}
		scoresShown = 0;
  802b68:	d027298d 	sth	zero,-25434(gp)
	}

}
  802b6c:	e037883a 	mov	sp,fp
  802b70:	dfc00117 	ldw	ra,4(sp)
  802b74:	df000017 	ldw	fp,0(sp)
  802b78:	dec00204 	addi	sp,sp,8
  802b7c:	f800283a 	ret

00802b80 <handleAtariInput>:

void handleAtariInput(void){
  802b80:	deffff04 	addi	sp,sp,-4
  802b84:	df000015 	stw	fp,0(sp)
  802b88:	d839883a 	mov	fp,sp
	static char atariUp;
	static char atariDown;
	static char atariFire;
	static short int edgeDetect = 0;

	atariButtons = (IORD_8DIRECT(PROCESSORGPIN_BASE, 0) & 0x0F);
  802b8c:	00804034 	movhi	r2,256
  802b90:	10842c04 	addi	r2,r2,4272
  802b94:	10800023 	ldbuio	r2,0(r2)
  802b98:	108003cc 	andi	r2,r2,15
  802b9c:	d0a72c45 	stb	r2,-25423(gp)
	atariFire = atariButtons & 0x08;
  802ba0:	d0a72c43 	ldbu	r2,-25423(gp)
  802ba4:	1080020c 	andi	r2,r2,8
  802ba8:	d0a72b85 	stb	r2,-25426(gp)
	atariUp = atariButtons & 0x02;
  802bac:	d0a72c43 	ldbu	r2,-25423(gp)
  802bb0:	1080008c 	andi	r2,r2,2
  802bb4:	d0a72c05 	stb	r2,-25424(gp)
	atariDown = atariButtons & 0x04;
  802bb8:	d0a72c43 	ldbu	r2,-25423(gp)
  802bbc:	1080010c 	andi	r2,r2,4
  802bc0:	d0a72bc5 	stb	r2,-25425(gp)
	IOWR_16DIRECT(LEDS_BASE, 0, atariButtons);
  802bc4:	d0a72c43 	ldbu	r2,-25423(gp)
  802bc8:	10c03fcc 	andi	r3,r2,255
  802bcc:	18c0201c 	xori	r3,r3,128
  802bd0:	18ffe004 	addi	r3,r3,-128
  802bd4:	00804034 	movhi	r2,256
  802bd8:	10841c04 	addi	r2,r2,4208
  802bdc:	10c0002d 	sthio	r3,0(r2)
	} else if (atariDown != 0x00) {
		moveDownPlayer();
	} else {
		keepPlayerStationary();
	}*/
}
  802be0:	e037883a 	mov	sp,fp
  802be4:	df000017 	ldw	fp,0(sp)
  802be8:	dec00104 	addi	sp,sp,4
  802bec:	f800283a 	ret

00802bf0 <startGame>:

int startGame() {
  802bf0:	defffd04 	addi	sp,sp,-12
  802bf4:	df000215 	stw	fp,8(sp)
  802bf8:	df000204 	addi	fp,sp,8
	char atariButtons;
	char atariFire;

	atariButtons = (IORD_8DIRECT(KEYS_BASE, 0) & 0x0F);
  802bfc:	00804034 	movhi	r2,256
  802c00:	10842004 	addi	r2,r2,4224
  802c04:	10800023 	ldbuio	r2,0(r2)
  802c08:	108003cc 	andi	r2,r2,15
  802c0c:	e0bffe45 	stb	r2,-7(fp)
	atariFire = atariButtons & 0x8;
  802c10:	e0bffe43 	ldbu	r2,-7(fp)
  802c14:	1080020c 	andi	r2,r2,8
  802c18:	e0bffe05 	stb	r2,-8(fp)
	
	if (atariFire) {
  802c1c:	e0bffe07 	ldb	r2,-8(fp)
  802c20:	1005003a 	cmpeq	r2,r2,zero
  802c24:	1000031e 	bne	r2,zero,802c34 <startGame+0x44>
		return 1;
  802c28:	00800044 	movi	r2,1
  802c2c:	e0bfff15 	stw	r2,-4(fp)
  802c30:	00000106 	br	802c38 <startGame+0x48>
	} else {
		return 0;
  802c34:	e03fff15 	stw	zero,-4(fp)
  802c38:	e0bfff17 	ldw	r2,-4(fp)
	}
}
  802c3c:	e037883a 	mov	sp,fp
  802c40:	df000017 	ldw	fp,0(sp)
  802c44:	dec00104 	addi	sp,sp,4
  802c48:	f800283a 	ret

00802c4c <init_lcd>:
#include "lcd.h"

int init_lcd() {
  802c4c:	defffd04 	addi	sp,sp,-12
  802c50:	dfc00215 	stw	ra,8(sp)
  802c54:	df000115 	stw	fp,4(sp)
  802c58:	df000104 	addi	fp,sp,4
	// open the Character LCD port
	char_lcd_dev = alt_up_character_lcd_open_dev("/dev/character_lcd_0");
  802c5c:	010020b4 	movhi	r4,130
  802c60:	212e5604 	addi	r4,r4,-18088
  802c64:	08142a80 	call	8142a8 <alt_up_character_lcd_open_dev>
  802c68:	d0a72d15 	stw	r2,-25420(gp)

	if(char_lcd_dev == NULL) {
  802c6c:	d0a72d17 	ldw	r2,-25420(gp)
  802c70:	1004c03a 	cmpne	r2,r2,zero
  802c74:	1000031e 	bne	r2,zero,802c84 <init_lcd+0x38>
		return -1;
  802c78:	00bfffc4 	movi	r2,-1
  802c7c:	e0bfff15 	stw	r2,-4(fp)
  802c80:	00000306 	br	802c90 <init_lcd+0x44>
	}

	/* Initialize the character display */
	alt_up_character_lcd_init (char_lcd_dev);
  802c84:	d1272d17 	ldw	r4,-25420(gp)
  802c88:	08142740 	call	814274 <alt_up_character_lcd_init>

	return 0;
  802c8c:	e03fff15 	stw	zero,-4(fp)
  802c90:	e0bfff17 	ldw	r2,-4(fp)
}
  802c94:	e037883a 	mov	sp,fp
  802c98:	dfc00117 	ldw	ra,4(sp)
  802c9c:	df000017 	ldw	fp,0(sp)
  802ca0:	dec00204 	addi	sp,sp,8
  802ca4:	f800283a 	ret

00802ca8 <init>:
#define switches (volatile char *) 0x1001060
#define leds (char *) 0x1001070
#define keys (volatile char *) 0x1001080
#define atariInput (volatile char *) 0x10010b0

int init(void) {
  802ca8:	defffd04 	addi	sp,sp,-12
  802cac:	dfc00215 	stw	ra,8(sp)
  802cb0:	df000115 	stw	fp,4(sp)
  802cb4:	df000104 	addi	fp,sp,4
	if (openSdCard() == -1) {
  802cb8:	08042ac0 	call	8042ac <openSdCard>
  802cbc:	10bfffd8 	cmpnei	r2,r2,-1
  802cc0:	1000061e 	bne	r2,zero,802cdc <init+0x34>
		printf("Error: Failed to open sd card\n");
  802cc4:	010020b4 	movhi	r4,130
  802cc8:	212e5c04 	addi	r4,r4,-18064
  802ccc:	080971c0 	call	80971c <puts>
		return -1;
  802cd0:	00bfffc4 	movi	r2,-1
  802cd4:	e0bfff15 	stw	r2,-4(fp)
  802cd8:	00001c06 	br	802d4c <init+0xa4>
	} else {
		printf("Opened SD card\n");
  802cdc:	010020b4 	movhi	r4,130
  802ce0:	212e6404 	addi	r4,r4,-18032
  802ce4:	080971c0 	call	80971c <puts>
	}

	if (init_lcd() == -1) {
  802ce8:	0802c4c0 	call	802c4c <init_lcd>
  802cec:	10bfffd8 	cmpnei	r2,r2,-1
  802cf0:	1000061e 	bne	r2,zero,802d0c <init+0x64>
		printf("Error: could not open character LCD device\n");
  802cf4:	010020b4 	movhi	r4,130
  802cf8:	212e6804 	addi	r4,r4,-18016
  802cfc:	080971c0 	call	80971c <puts>
		return -1;
  802d00:	00bfffc4 	movi	r2,-1
  802d04:	e0bfff15 	stw	r2,-4(fp)
  802d08:	00001006 	br	802d4c <init+0xa4>
	} else {
		printf("LCD Initialized\n");
  802d0c:	010020b4 	movhi	r4,130
  802d10:	212e7304 	addi	r4,r4,-17972
  802d14:	080971c0 	call	80971c <puts>
	}

	initVga();
  802d18:	08050c40 	call	8050c4 <initVga>
	parseBmps();
  802d1c:	08014fc0 	call	8014fc <parseBmps>
	drawSplashScreen();
  802d20:	0804cec0 	call	804cec <drawSplashScreen>
	setupAudio();
  802d24:	08002040 	call	800204 <setupAudio>
	setupDisplacement();
  802d28:	08022640 	call	802264 <setupDisplacement>
	initScoreBoard();
  802d2c:	08031840 	call	803184 <initScoreBoard>

	initBullets();
  802d30:	08017c40 	call	8017c4 <initBullets>
	initPlayer();
  802d34:	0802e9c0 	call	802e9c <initPlayer>
	initSharks();
  802d38:	08046200 	call	804620 <initSharks>

	setHardwareTimerPeriod(CLOCK_FREQ/30);
  802d3c:	01000674 	movhi	r4,25
  802d40:	211b9a84 	addi	r4,r4,28266
  802d44:	0804ff40 	call	804ff4 <setHardwareTimerPeriod>
	return 0;
  802d48:	e03fff15 	stw	zero,-4(fp)
  802d4c:	e0bfff17 	ldw	r2,-4(fp)
}
  802d50:	e037883a 	mov	sp,fp
  802d54:	dfc00117 	ldw	ra,4(sp)
  802d58:	df000017 	ldw	fp,0(sp)
  802d5c:	dec00204 	addi	sp,sp,8
  802d60:	f800283a 	ret

00802d64 <main>:

int main() {
  802d64:	defffb04 	addi	sp,sp,-20
  802d68:	dfc00415 	stw	ra,16(sp)
  802d6c:	df000315 	stw	fp,12(sp)
  802d70:	df000304 	addi	fp,sp,12
	int count = 0;
  802d74:	e03ffe15 	stw	zero,-8(fp)
	short int displaySplashScreen = 1;
  802d78:	00800044 	movi	r2,1
  802d7c:	e0bffd0d 	sth	r2,-12(fp)

	if (init() == -1)
  802d80:	0802ca80 	call	802ca8 <init>
  802d84:	10bfffd8 	cmpnei	r2,r2,-1
  802d88:	1000031e 	bne	r2,zero,802d98 <main+0x34>
		return -1;
  802d8c:	00bfffc4 	movi	r2,-1
  802d90:	e0bfff15 	stw	r2,-4(fp)
  802d94:	00003b06 	br	802e84 <main+0x120>

	setHardwareTimerPeriod(CLOCK_FREQ / 30);
  802d98:	01000674 	movhi	r4,25
  802d9c:	211b9a84 	addi	r4,r4,28266
  802da0:	0804ff40 	call	804ff4 <setHardwareTimerPeriod>

	createShark(22, 100, 0, (Displacement *)&doNotMove);
  802da4:	01000584 	movi	r4,22
  802da8:	01401904 	movi	r5,100
  802dac:	000d883a 	mov	r6,zero
  802db0:	01c020b4 	movhi	r7,130
  802db4:	39c6a204 	addi	r7,r7,6792
  802db8:	08049e40 	call	8049e4 <createShark>
	createShark(45, 200, 200, (Displacement *)&doNotMove);
  802dbc:	01000b44 	movi	r4,45
  802dc0:	01403204 	movi	r5,200
  802dc4:	01803204 	movi	r6,200
  802dc8:	01c020b4 	movhi	r7,130
  802dcc:	39c6a204 	addi	r7,r7,6792
  802dd0:	08049e40 	call	8049e4 <createShark>

	drawAllSharks();
  802dd4:	08049440 	call	804944 <drawAllSharks>
	startHardwareTimer();
  802dd8:	08050980 	call	805098 <startHardwareTimer>

	printf("%d: count \n", count);
  802ddc:	010020b4 	movhi	r4,130
  802de0:	212e7704 	addi	r4,r4,-17956
  802de4:	e17ffe17 	ldw	r5,-8(fp)
  802de8:	08096040 	call	809604 <printf>
  802dec:	00000006 	br	802df0 <main+0x8c>
	// main game loop;
	while(1) {
		if (hasHardwareTimerExpired() == 1) {
  802df0:	08050700 	call	805070 <hasHardwareTimerExpired>
  802df4:	10800058 	cmpnei	r2,r2,1
  802df8:	103ffd1e 	bne	r2,zero,802df0 <main+0x8c>
			startHardwareTimer();
  802dfc:	08050980 	call	805098 <startHardwareTimer>

			if (displaySplashScreen) {
  802e00:	e0bffd0f 	ldh	r2,-12(fp)
  802e04:	1005003a 	cmpeq	r2,r2,zero
  802e08:	1000061e 	bne	r2,zero,802e24 <main+0xc0>
				if(startGame()) {
  802e0c:	0802bf00 	call	802bf0 <startGame>
  802e10:	1005003a 	cmpeq	r2,r2,zero
  802e14:	103ff61e 	bne	r2,zero,802df0 <main+0x8c>
					clearSplashScreen();
  802e18:	0804d380 	call	804d38 <clearSplashScreen>
					displaySplashScreen = 0;	
  802e1c:	e03ffd0d 	sth	zero,-12(fp)
  802e20:	003ff306 	br	802df0 <main+0x8c>
				}
			} else {
				count++;
  802e24:	e0bffe17 	ldw	r2,-8(fp)
  802e28:	10800044 	addi	r2,r2,1
  802e2c:	e0bffe15 	stw	r2,-8(fp)

				moveAllSharks();
  802e30:	08048f40 	call	8048f4 <moveAllSharks>
				drawAllSharks();
  802e34:	08049440 	call	804944 <drawAllSharks>
				drawInGameInfo(); // TBD: in actual game loop, only call this function when an event happens (like score inc/dec, or lives inc/dec)
  802e38:	08040500 	call	804050 <drawInGameInfo>

				handleKeyInput();
  802e3c:	08029540 	call	802954 <handleKeyInput>
				handleSwitchInput();
  802e40:	0802aac0 	call	802aac <handleSwitchInput>
				//handleAtariInput();

				moveAllBullets();
  802e44:	08019e40 	call	8019e4 <moveAllBullets>

				cleanupDeadSharks();
  802e48:	0804bd00 	call	804bd0 <cleanupDeadSharks>

				doSharkBulletCollision();
  802e4c:	08021280 	call	802128 <doSharkBulletCollision>
				doPlayerBulletCollision();
  802e50:	08021c80 	call	8021c8 <doPlayerBulletCollision>

				drawAllBullets();
  802e54:	0801aac0 	call	801aac <drawAllBullets>

				alt_up_pixel_buffer_dma_swap_buffers(pixel_buffer);
  802e58:	d1271917 	ldw	r4,-25500(gp)
  802e5c:	0814c300 	call	814c30 <alt_up_pixel_buffer_dma_swap_buffers>
				while(alt_up_pixel_buffer_dma_check_swap_buffers_status(pixel_buffer));
  802e60:	d1271917 	ldw	r4,-25500(gp)
  802e64:	0814c880 	call	814c88 <alt_up_pixel_buffer_dma_check_swap_buffers_status>
  802e68:	1004c03a 	cmpne	r2,r2,zero
  802e6c:	103ffc1e 	bne	r2,zero,802e60 <main+0xfc>
				cleanupDeadSharks();
  802e70:	0804bd00 	call	804bd0 <cleanupDeadSharks>
				eraseAllSharks();
  802e74:	08049940 	call	804994 <eraseAllSharks>
				eraseAllBullets();
  802e78:	0801b300 	call	801b30 <eraseAllBullets>
				erasePlayer();
  802e7c:	0802f3c0 	call	802f3c <erasePlayer>
			}
		}
	}
  802e80:	003fdb06 	br	802df0 <main+0x8c>

	freeBmps();
	return 0;
}
  802e84:	e0bfff17 	ldw	r2,-4(fp)
  802e88:	e037883a 	mov	sp,fp
  802e8c:	dfc00117 	ldw	ra,4(sp)
  802e90:	df000017 	ldw	fp,0(sp)
  802e94:	dec00204 	addi	sp,sp,8
  802e98:	f800283a 	ret

00802e9c <initPlayer>:
#include "player.h"
#include "audio.h"
#include "score.h"

void initPlayer() {
  802e9c:	deffff04 	addi	sp,sp,-4
  802ea0:	df000015 	stw	fp,0(sp)
  802ea4:	d839883a 	mov	fp,sp
	player.x = 10;
  802ea8:	00c020b4 	movhi	r3,130
  802eac:	18ff9e04 	addi	r3,r3,-392
  802eb0:	00800284 	movi	r2,10
  802eb4:	18800015 	stw	r2,0(r3)
	player.y = 90;
  802eb8:	00c020b4 	movhi	r3,130
  802ebc:	18ff9e04 	addi	r3,r3,-392
  802ec0:	00801684 	movi	r2,90
  802ec4:	18800215 	stw	r2,8(r3)
	player.prevX = 10;
  802ec8:	00c020b4 	movhi	r3,130
  802ecc:	18ff9e04 	addi	r3,r3,-392
  802ed0:	00800284 	movi	r2,10
  802ed4:	18800115 	stw	r2,4(r3)
	player.prevY = 90;
  802ed8:	00c020b4 	movhi	r3,130
  802edc:	18ff9e04 	addi	r3,r3,-392
  802ee0:	00801684 	movi	r2,90
  802ee4:	18800315 	stw	r2,12(r3)
}
  802ee8:	e037883a 	mov	sp,fp
  802eec:	df000017 	ldw	fp,0(sp)
  802ef0:	dec00104 	addi	sp,sp,4
  802ef4:	f800283a 	ret

00802ef8 <drawPlayer>:

void drawPlayer() {
  802ef8:	defffe04 	addi	sp,sp,-8
  802efc:	dfc00115 	stw	ra,4(sp)
  802f00:	df000015 	stw	fp,0(sp)
  802f04:	d839883a 	mov	fp,sp
	drawBmp(playerBmp, player.x, player.y);
  802f08:	d1271a17 	ldw	r4,-25496(gp)
  802f0c:	008020b4 	movhi	r2,130
  802f10:	10bf9e04 	addi	r2,r2,-392
  802f14:	11400017 	ldw	r5,0(r2)
  802f18:	008020b4 	movhi	r2,130
  802f1c:	10bf9e04 	addi	r2,r2,-392
  802f20:	11800217 	ldw	r6,8(r2)
  802f24:	08015f80 	call	8015f8 <drawBmp>
}
  802f28:	e037883a 	mov	sp,fp
  802f2c:	dfc00117 	ldw	ra,4(sp)
  802f30:	df000017 	ldw	fp,0(sp)
  802f34:	dec00204 	addi	sp,sp,8
  802f38:	f800283a 	ret

00802f3c <erasePlayer>:

void erasePlayer() {
  802f3c:	defffe04 	addi	sp,sp,-8
  802f40:	dfc00115 	stw	ra,4(sp)
  802f44:	df000015 	stw	fp,0(sp)
  802f48:	d839883a 	mov	fp,sp
	eraseBmp(playerBmp, player.prevX, player.prevY);
  802f4c:	d1271a17 	ldw	r4,-25496(gp)
  802f50:	008020b4 	movhi	r2,130
  802f54:	10bf9e04 	addi	r2,r2,-392
  802f58:	11400117 	ldw	r5,4(r2)
  802f5c:	008020b4 	movhi	r2,130
  802f60:	10bf9e04 	addi	r2,r2,-392
  802f64:	11800317 	ldw	r6,12(r2)
  802f68:	08017640 	call	801764 <eraseBmp>
}
  802f6c:	e037883a 	mov	sp,fp
  802f70:	dfc00117 	ldw	ra,4(sp)
  802f74:	df000017 	ldw	fp,0(sp)
  802f78:	dec00204 	addi	sp,sp,8
  802f7c:	f800283a 	ret

00802f80 <moveUpPlayer>:

void moveUpPlayer() {
  802f80:	defffe04 	addi	sp,sp,-8
  802f84:	dfc00115 	stw	ra,4(sp)
  802f88:	df000015 	stw	fp,0(sp)
  802f8c:	d839883a 	mov	fp,sp
	player.prevY = player.y;
  802f90:	008020b4 	movhi	r2,130
  802f94:	10bf9e04 	addi	r2,r2,-392
  802f98:	10c00217 	ldw	r3,8(r2)
  802f9c:	008020b4 	movhi	r2,130
  802fa0:	10bf9e04 	addi	r2,r2,-392
  802fa4:	10c00315 	stw	r3,12(r2)

	if (player.y > 0)
  802fa8:	008020b4 	movhi	r2,130
  802fac:	10bf9e04 	addi	r2,r2,-392
  802fb0:	10800217 	ldw	r2,8(r2)
  802fb4:	10800050 	cmplti	r2,r2,1
  802fb8:	1000071e 	bne	r2,zero,802fd8 <moveUpPlayer+0x58>
		player.y = player.y - 2;
  802fbc:	008020b4 	movhi	r2,130
  802fc0:	10bf9e04 	addi	r2,r2,-392
  802fc4:	10800217 	ldw	r2,8(r2)
  802fc8:	10ffff84 	addi	r3,r2,-2
  802fcc:	008020b4 	movhi	r2,130
  802fd0:	10bf9e04 	addi	r2,r2,-392
  802fd4:	10c00215 	stw	r3,8(r2)

	drawBmp(playerBmp, player.x, player.y);
  802fd8:	d1271a17 	ldw	r4,-25496(gp)
  802fdc:	008020b4 	movhi	r2,130
  802fe0:	10bf9e04 	addi	r2,r2,-392
  802fe4:	11400017 	ldw	r5,0(r2)
  802fe8:	008020b4 	movhi	r2,130
  802fec:	10bf9e04 	addi	r2,r2,-392
  802ff0:	11800217 	ldw	r6,8(r2)
  802ff4:	08015f80 	call	8015f8 <drawBmp>
}
  802ff8:	e037883a 	mov	sp,fp
  802ffc:	dfc00117 	ldw	ra,4(sp)
  803000:	df000017 	ldw	fp,0(sp)
  803004:	dec00204 	addi	sp,sp,8
  803008:	f800283a 	ret

0080300c <moveDownPlayer>:
void moveDownPlayer()
{
  80300c:	defffe04 	addi	sp,sp,-8
  803010:	dfc00115 	stw	ra,4(sp)
  803014:	df000015 	stw	fp,0(sp)
  803018:	d839883a 	mov	fp,sp
	player.prevY = player.y;
  80301c:	008020b4 	movhi	r2,130
  803020:	10bf9e04 	addi	r2,r2,-392
  803024:	10c00217 	ldw	r3,8(r2)
  803028:	008020b4 	movhi	r2,130
  80302c:	10bf9e04 	addi	r2,r2,-392
  803030:	10c00315 	stw	r3,12(r2)

	if (player.y < SCREEN_HEIGHT - PLAYER_HEIGHT)
  803034:	008020b4 	movhi	r2,130
  803038:	10bf9e04 	addi	r2,r2,-392
  80303c:	10800217 	ldw	r2,8(r2)
  803040:	10803488 	cmpgei	r2,r2,210
  803044:	1000071e 	bne	r2,zero,803064 <moveDownPlayer+0x58>
		player.y = player.y + 2;
  803048:	008020b4 	movhi	r2,130
  80304c:	10bf9e04 	addi	r2,r2,-392
  803050:	10800217 	ldw	r2,8(r2)
  803054:	10c00084 	addi	r3,r2,2
  803058:	008020b4 	movhi	r2,130
  80305c:	10bf9e04 	addi	r2,r2,-392
  803060:	10c00215 	stw	r3,8(r2)

	drawBmp(playerBmp, player.x, player.y);
  803064:	d1271a17 	ldw	r4,-25496(gp)
  803068:	008020b4 	movhi	r2,130
  80306c:	10bf9e04 	addi	r2,r2,-392
  803070:	11400017 	ldw	r5,0(r2)
  803074:	008020b4 	movhi	r2,130
  803078:	10bf9e04 	addi	r2,r2,-392
  80307c:	11800217 	ldw	r6,8(r2)
  803080:	08015f80 	call	8015f8 <drawBmp>
}
  803084:	e037883a 	mov	sp,fp
  803088:	dfc00117 	ldw	ra,4(sp)
  80308c:	df000017 	ldw	fp,0(sp)
  803090:	dec00204 	addi	sp,sp,8
  803094:	f800283a 	ret

00803098 <keepPlayerStationary>:

void keepPlayerStationary() {
  803098:	defffe04 	addi	sp,sp,-8
  80309c:	dfc00115 	stw	ra,4(sp)
  8030a0:	df000015 	stw	fp,0(sp)
  8030a4:	d839883a 	mov	fp,sp
	player.prevY = player.y;
  8030a8:	008020b4 	movhi	r2,130
  8030ac:	10bf9e04 	addi	r2,r2,-392
  8030b0:	10c00217 	ldw	r3,8(r2)
  8030b4:	008020b4 	movhi	r2,130
  8030b8:	10bf9e04 	addi	r2,r2,-392
  8030bc:	10c00315 	stw	r3,12(r2)
	drawBmp(playerBmp, player.x, player.y);
  8030c0:	d1271a17 	ldw	r4,-25496(gp)
  8030c4:	008020b4 	movhi	r2,130
  8030c8:	10bf9e04 	addi	r2,r2,-392
  8030cc:	11400017 	ldw	r5,0(r2)
  8030d0:	008020b4 	movhi	r2,130
  8030d4:	10bf9e04 	addi	r2,r2,-392
  8030d8:	11800217 	ldw	r6,8(r2)
  8030dc:	08015f80 	call	8015f8 <drawBmp>
}
  8030e0:	e037883a 	mov	sp,fp
  8030e4:	dfc00117 	ldw	ra,4(sp)
  8030e8:	df000017 	ldw	fp,0(sp)
  8030ec:	dec00204 	addi	sp,sp,8
  8030f0:	f800283a 	ret

008030f4 <hitPlayer>:

void hitPlayer() {
  8030f4:	defffd04 	addi	sp,sp,-12
  8030f8:	dfc00215 	stw	ra,8(sp)
  8030fc:	df000115 	stw	fp,4(sp)
  803100:	df000104 	addi	fp,sp,4
	int playerLives = getCurrentPlayerLives();
  803104:	0803dc80 	call	803dc8 <getCurrentPlayerLives>
  803108:	e0bfff15 	stw	r2,-4(fp)
	if (playerLives > 1) {
  80310c:	e0bfff17 	ldw	r2,-4(fp)
  803110:	10800090 	cmplti	r2,r2,2
  803114:	1000041e 	bne	r2,zero,803128 <hitPlayer+0x34>
		setCurrentPlayerLives(playerLives - 1);
  803118:	e0bfff17 	ldw	r2,-4(fp)
  80311c:	113fffc4 	addi	r4,r2,-1
  803120:	0803d9c0 	call	803d9c <setCurrentPlayerLives>
  803124:	00000706 	br	803144 <hitPlayer+0x50>
	} else if (playerLives == 1) {
  803128:	e0bfff17 	ldw	r2,-4(fp)
  80312c:	10800058 	cmpnei	r2,r2,1
  803130:	1000041e 	bne	r2,zero,803144 <hitPlayer+0x50>
		setCurrentPlayerLives(playerLives - 1);
  803134:	e0bfff17 	ldw	r2,-4(fp)
  803138:	113fffc4 	addi	r4,r2,-1
  80313c:	0803d9c0 	call	803d9c <setCurrentPlayerLives>
		killPlayer();
  803140:	080315c0 	call	80315c <killPlayer>
	}
	drawInGameInfo();
  803144:	08040500 	call	804050 <drawInGameInfo>
}
  803148:	e037883a 	mov	sp,fp
  80314c:	dfc00117 	ldw	ra,4(sp)
  803150:	df000017 	ldw	fp,0(sp)
  803154:	dec00204 	addi	sp,sp,8
  803158:	f800283a 	ret

0080315c <killPlayer>:

void killPlayer() {
  80315c:	defffe04 	addi	sp,sp,-8
  803160:	dfc00115 	stw	ra,4(sp)
  803164:	df000015 	stw	fp,0(sp)
  803168:	d839883a 	mov	fp,sp
	playPlayerDeath();
  80316c:	0800b880 	call	800b88 <playPlayerDeath>
	//updateHighScoreBoard();
	// Some game over stuff
}
  803170:	e037883a 	mov	sp,fp
  803174:	dfc00117 	ldw	ra,4(sp)
  803178:	df000017 	ldw	fp,0(sp)
  80317c:	dec00204 	addi	sp,sp,8
  803180:	f800283a 	ret

00803184 <initScoreBoard>:

char * scoreFileName = "scores.txt";
struct scores * gameScores;

//set all gameScores values to initial values - read all high score board info from SD card.
void initScoreBoard(void) {
  803184:	defffe04 	addi	sp,sp,-8
  803188:	dfc00115 	stw	ra,4(sp)
  80318c:	df000015 	stw	fp,0(sp)
  803190:	d839883a 	mov	fp,sp
	alt_up_char_buffer_clear(char_buffer); // clear screen
  803194:	d1271517 	ldw	r4,-25516(gp)
  803198:	081499c0 	call	81499c <alt_up_char_buffer_clear>
	gameScores = malloc(sizeof(struct scores));
  80319c:	01001404 	movi	r4,80
  8031a0:	0808eb00 	call	808eb0 <malloc>
  8031a4:	d0a72e15 	stw	r2,-25416(gp)
	printf("gameScoresTemp is at: %x\n", (unsigned int)gameScores);
  8031a8:	d0a72e17 	ldw	r2,-25416(gp)
  8031ac:	100b883a 	mov	r5,r2
  8031b0:	010020b4 	movhi	r4,130
  8031b4:	212e7d04 	addi	r4,r4,-17932
  8031b8:	08096040 	call	809604 <printf>

	gameScores->currentPlayerScore = 0; // TBD - set to 0 - testing code by setting to other values.
  8031bc:	d0a72e17 	ldw	r2,-25416(gp)
  8031c0:	10000015 	stw	zero,0(r2)
	gameScores->currentPlayerLives = INITIALLIVES;
  8031c4:	d0e72e17 	ldw	r3,-25416(gp)
  8031c8:	008000c4 	movi	r2,3
  8031cc:	18800115 	stw	r2,4(r3)
	readHighScoreBoardFromSD();
  8031d0:	08032900 	call	803290 <readHighScoreBoardFromSD>
}
  8031d4:	e037883a 	mov	sp,fp
  8031d8:	dfc00117 	ldw	ra,4(sp)
  8031dc:	df000017 	ldw	fp,0(sp)
  8031e0:	dec00204 	addi	sp,sp,8
  8031e4:	f800283a 	ret

008031e8 <defaultHighScoreBoard>:

//set high score values to defaults - used if reading the SD card fails.s
void defaultHighScoreBoard(void) {
  8031e8:	defffd04 	addi	sp,sp,-12
  8031ec:	df000215 	stw	fp,8(sp)
  8031f0:	df000204 	addi	fp,sp,8
	int i,j;
	for(i = 0; i < NUMSCORES; i++) {
  8031f4:	e03fff15 	stw	zero,-4(fp)
  8031f8:	00001e06 	br	803274 <defaultHighScoreBoard+0x8c>
		gameScores->highScoreBoard[i] = 1;
  8031fc:	d0e72e17 	ldw	r3,-25416(gp)
  803200:	e0bfff17 	ldw	r2,-4(fp)
  803204:	1085883a 	add	r2,r2,r2
  803208:	1085883a 	add	r2,r2,r2
  80320c:	10c5883a 	add	r2,r2,r3
  803210:	10c00204 	addi	r3,r2,8
  803214:	00800044 	movi	r2,1
  803218:	18800015 	stw	r2,0(r3)
		for(j = 0; j < NUMINITIALS; j++) {
  80321c:	e03ffe15 	stw	zero,-8(fp)
  803220:	00000e06 	br	80325c <defaultHighScoreBoard+0x74>
			gameScores->highScoreBoardInits[i][j] = 'X';
  803224:	d1672e17 	ldw	r5,-25416(gp)
  803228:	e0ffff17 	ldw	r3,-4(fp)
  80322c:	e13ffe17 	ldw	r4,-8(fp)
  803230:	1805883a 	mov	r2,r3
  803234:	1085883a 	add	r2,r2,r2
  803238:	10c5883a 	add	r2,r2,r3
  80323c:	1145883a 	add	r2,r2,r5
  803240:	1105883a 	add	r2,r2,r4
  803244:	10c00c04 	addi	r3,r2,48
  803248:	00801604 	movi	r2,88
  80324c:	18800005 	stb	r2,0(r3)
//set high score values to defaults - used if reading the SD card fails.s
void defaultHighScoreBoard(void) {
	int i,j;
	for(i = 0; i < NUMSCORES; i++) {
		gameScores->highScoreBoard[i] = 1;
		for(j = 0; j < NUMINITIALS; j++) {
  803250:	e0bffe17 	ldw	r2,-8(fp)
  803254:	10800044 	addi	r2,r2,1
  803258:	e0bffe15 	stw	r2,-8(fp)
  80325c:	e0bffe17 	ldw	r2,-8(fp)
  803260:	108000d0 	cmplti	r2,r2,3
  803264:	103fef1e 	bne	r2,zero,803224 <defaultHighScoreBoard+0x3c>
}

//set high score values to defaults - used if reading the SD card fails.s
void defaultHighScoreBoard(void) {
	int i,j;
	for(i = 0; i < NUMSCORES; i++) {
  803268:	e0bfff17 	ldw	r2,-4(fp)
  80326c:	10800044 	addi	r2,r2,1
  803270:	e0bfff15 	stw	r2,-4(fp)
  803274:	e0bfff17 	ldw	r2,-4(fp)
  803278:	10800290 	cmplti	r2,r2,10
  80327c:	103fdf1e 	bne	r2,zero,8031fc <defaultHighScoreBoard+0x14>
		for(j = 0; j < NUMINITIALS; j++) {
			gameScores->highScoreBoardInits[i][j] = 'X';
		}
	}
	return;
}
  803280:	e037883a 	mov	sp,fp
  803284:	df000017 	ldw	fp,0(sp)
  803288:	dec00104 	addi	sp,sp,4
  80328c:	f800283a 	ret

00803290 <readHighScoreBoardFromSD>:

//returns -1 on error in reading scoreboard (and also defaults all current values), returns 0 on success.
//function updates all gameScores' variables so that reading them have the most up to date values
int readHighScoreBoardFromSD(void) {
  803290:	deffe904 	addi	sp,sp,-92
  803294:	dfc01615 	stw	ra,88(sp)
  803298:	df001515 	stw	fp,84(sp)
  80329c:	dcc01415 	stw	r19,80(sp)
  8032a0:	dc801315 	stw	r18,76(sp)
  8032a4:	dc401215 	stw	r17,72(sp)
  8032a8:	dc001115 	stw	r16,68(sp)
  8032ac:	df001104 	addi	fp,sp,68
	gameScores->currentScoreBoardCorrupt = 0;
  8032b0:	d0a72e17 	ldw	r2,-25416(gp)
  8032b4:	10001385 	stb	zero,78(r2)

	short int fileHandle = openFile(scoreFileName);
  8032b8:	d1200417 	ldw	r4,-32752(gp)
  8032bc:	080430c0 	call	80430c <openFile>
  8032c0:	e0bff48d 	sth	r2,-46(fp)
	if (fileHandle == -1) {
  8032c4:	e0bff48f 	ldh	r2,-46(fp)
  8032c8:	10bfffd8 	cmpnei	r2,r2,-1
  8032cc:	10000b1e 	bne	r2,zero,8032fc <readHighScoreBoardFromSD+0x6c>
		printf("Error opening %s\n", scoreFileName);
  8032d0:	d1600417 	ldw	r5,-32752(gp)
  8032d4:	010020b4 	movhi	r4,130
  8032d8:	212e8404 	addi	r4,r4,-17904
  8032dc:	08096040 	call	809604 <printf>
		defaultHighScoreBoard();
  8032e0:	08031e80 	call	8031e8 <defaultHighScoreBoard>
		gameScores->currentScoreBoardCorrupt = 1;
  8032e4:	d0e72e17 	ldw	r3,-25416(gp)
  8032e8:	00800044 	movi	r2,1
  8032ec:	18801385 	stb	r2,78(r3)
		return -1;
  8032f0:	00bfffc4 	movi	r2,-1
  8032f4:	e0bfff15 	stw	r2,-4(fp)
  8032f8:	0000b006 	br	8035bc <readHighScoreBoardFromSD+0x32c>
	char readValue;
	int currentScore;
	int numDigits;
	int scoreBuffer[MAXSCOREDIGITS];
	int i,j,k;
	for(i = 0; i < NUMSCORES; i++) {
  8032fc:	e03ff115 	stw	zero,-60(fp)
  803300:	0000a806 	br	8035a4 <readHighScoreBoardFromSD+0x314>
		for(j = 0; j < NUMINITIALS; j++){
  803304:	e03ff015 	stw	zero,-64(fp)
  803308:	00001106 	br	803350 <readHighScoreBoardFromSD+0xc0>
			readValue = readByte(fileHandle);
  80330c:	e13ff48f 	ldh	r4,-46(fp)
  803310:	080437c0 	call	80437c <readByte>
  803314:	e0bff405 	stb	r2,-48(fp)
			gameScores->highScoreBoardInits[i][j] = readValue;
  803318:	d1272e17 	ldw	r4,-25416(gp)
  80331c:	e0fff117 	ldw	r3,-60(fp)
  803320:	e17ff017 	ldw	r5,-64(fp)
  803324:	e1bff403 	ldbu	r6,-48(fp)
  803328:	1805883a 	mov	r2,r3
  80332c:	1085883a 	add	r2,r2,r2
  803330:	10c5883a 	add	r2,r2,r3
  803334:	1105883a 	add	r2,r2,r4
  803338:	1145883a 	add	r2,r2,r5
  80333c:	10800c04 	addi	r2,r2,48
  803340:	11800005 	stb	r6,0(r2)
	int currentScore;
	int numDigits;
	int scoreBuffer[MAXSCOREDIGITS];
	int i,j,k;
	for(i = 0; i < NUMSCORES; i++) {
		for(j = 0; j < NUMINITIALS; j++){
  803344:	e0bff017 	ldw	r2,-64(fp)
  803348:	10800044 	addi	r2,r2,1
  80334c:	e0bff015 	stw	r2,-64(fp)
  803350:	e0bff017 	ldw	r2,-64(fp)
  803354:	108000d0 	cmplti	r2,r2,3
  803358:	103fec1e 	bne	r2,zero,80330c <readHighScoreBoardFromSD+0x7c>
			readValue = readByte(fileHandle);
			gameScores->highScoreBoardInits[i][j] = readValue;
		}
		readValue = readByte(fileHandle);
  80335c:	e13ff48f 	ldh	r4,-46(fp)
  803360:	080437c0 	call	80437c <readByte>
  803364:	e0bff405 	stb	r2,-48(fp)

		if(readValue != 0x20) {
  803368:	e0bff407 	ldb	r2,-48(fp)
  80336c:	10800820 	cmpeqi	r2,r2,32
  803370:	10000d1e 	bne	r2,zero,8033a8 <readHighScoreBoardFromSD+0x118>
			closeFile(fileHandle);
  803374:	e13ff48f 	ldh	r4,-46(fp)
  803378:	080434c0 	call	80434c <closeFile>
			printf("Error within %s - file not initialized to proper format. Scoreboard defaulted.", scoreFileName);
  80337c:	d1600417 	ldw	r5,-32752(gp)
  803380:	010020b4 	movhi	r4,130
  803384:	212e8904 	addi	r4,r4,-17884
  803388:	08096040 	call	809604 <printf>
			defaultHighScoreBoard();
  80338c:	08031e80 	call	8031e8 <defaultHighScoreBoard>
			gameScores->currentScoreBoardCorrupt = 1;
  803390:	d0e72e17 	ldw	r3,-25416(gp)
  803394:	00800044 	movi	r2,1
  803398:	18801385 	stb	r2,78(r3)
			return -1;
  80339c:	00ffffc4 	movi	r3,-1
  8033a0:	e0ffff15 	stw	r3,-4(fp)
  8033a4:	00008506 	br	8035bc <readHighScoreBoardFromSD+0x32c>
		}

		//clear score buffer - which is used in order to convert unknown number of chars into an int.
		for(k = 0; k < MAXSCOREDIGITS; k++){
  8033a8:	e03fef15 	stw	zero,-68(fp)
  8033ac:	00000b06 	br	8033dc <readHighScoreBoardFromSD+0x14c>
			scoreBuffer[k] = -1;
  8033b0:	e0bfef17 	ldw	r2,-68(fp)
  8033b4:	1085883a 	add	r2,r2,r2
  8033b8:	1085883a 	add	r2,r2,r2
  8033bc:	e13fef04 	addi	r4,fp,-68
  8033c0:	1105883a 	add	r2,r2,r4
  8033c4:	10c00604 	addi	r3,r2,24
  8033c8:	00bfffc4 	movi	r2,-1
  8033cc:	18800015 	stw	r2,0(r3)
			gameScores->currentScoreBoardCorrupt = 1;
			return -1;
		}

		//clear score buffer - which is used in order to convert unknown number of chars into an int.
		for(k = 0; k < MAXSCOREDIGITS; k++){
  8033d0:	e0bfef17 	ldw	r2,-68(fp)
  8033d4:	10800044 	addi	r2,r2,1
  8033d8:	e0bfef15 	stw	r2,-68(fp)
  8033dc:	e0bfef17 	ldw	r2,-68(fp)
  8033e0:	10800290 	cmplti	r2,r2,10
  8033e4:	103ff21e 	bne	r2,zero,8033b0 <readHighScoreBoardFromSD+0x120>
			scoreBuffer[k] = -1;
		}

		numDigits = 0;
  8033e8:	e03ff215 	stw	zero,-56(fp)
		while((readValue = readByte(fileHandle)) != 0x20 && numDigits < MAXSCOREDIGITS) { //loop until space found
  8033ec:	00000b06 	br	80341c <readHighScoreBoardFromSD+0x18c>
			scoreBuffer[numDigits] = readValue;
  8033f0:	e0bff217 	ldw	r2,-56(fp)
  8033f4:	e0fff407 	ldb	r3,-48(fp)
  8033f8:	1085883a 	add	r2,r2,r2
  8033fc:	1085883a 	add	r2,r2,r2
  803400:	e13fef04 	addi	r4,fp,-68
  803404:	1105883a 	add	r2,r2,r4
  803408:	10800604 	addi	r2,r2,24
  80340c:	10c00015 	stw	r3,0(r2)
			numDigits++;
  803410:	e0bff217 	ldw	r2,-56(fp)
  803414:	10800044 	addi	r2,r2,1
  803418:	e0bff215 	stw	r2,-56(fp)
		for(k = 0; k < MAXSCOREDIGITS; k++){
			scoreBuffer[k] = -1;
		}

		numDigits = 0;
		while((readValue = readByte(fileHandle)) != 0x20 && numDigits < MAXSCOREDIGITS) { //loop until space found
  80341c:	e13ff48f 	ldh	r4,-46(fp)
  803420:	080437c0 	call	80437c <readByte>
  803424:	e0bff405 	stb	r2,-48(fp)
  803428:	e0bff407 	ldb	r2,-48(fp)
  80342c:	10800820 	cmpeqi	r2,r2,32
  803430:	1000031e 	bne	r2,zero,803440 <readHighScoreBoardFromSD+0x1b0>
  803434:	e0bff217 	ldw	r2,-56(fp)
  803438:	10800290 	cmplti	r2,r2,10
  80343c:	103fec1e 	bne	r2,zero,8033f0 <readHighScoreBoardFromSD+0x160>
			scoreBuffer[numDigits] = readValue;
			numDigits++;
		}
		if(readValue != 0x20) {
  803440:	e0bff407 	ldb	r2,-48(fp)
  803444:	10800820 	cmpeqi	r2,r2,32
  803448:	10000d1e 	bne	r2,zero,803480 <readHighScoreBoardFromSD+0x1f0>
			closeFile(fileHandle);
  80344c:	e13ff48f 	ldh	r4,-46(fp)
  803450:	080434c0 	call	80434c <closeFile>
			printf("Error within %s - file not initialized to proper format. Scoreboard defaulted.", scoreFileName);
  803454:	d1600417 	ldw	r5,-32752(gp)
  803458:	010020b4 	movhi	r4,130
  80345c:	212e8904 	addi	r4,r4,-17884
  803460:	08096040 	call	809604 <printf>
			defaultHighScoreBoard();
  803464:	08031e80 	call	8031e8 <defaultHighScoreBoard>
			gameScores->currentScoreBoardCorrupt = 1;
  803468:	d0e72e17 	ldw	r3,-25416(gp)
  80346c:	00800044 	movi	r2,1
  803470:	18801385 	stb	r2,78(r3)
			return -1;
  803474:	00bfffc4 	movi	r2,-1
  803478:	e0bfff15 	stw	r2,-4(fp)
  80347c:	00004f06 	br	8035bc <readHighScoreBoardFromSD+0x32c>
		}

		//use scoreBuffer values (stored in char values) into a meaningful integer, currentScore.
		currentScore = 0;
  803480:	e03ff315 	stw	zero,-52(fp)
		for(k = 0; k < numDigits; k++) {
  803484:	e03fef15 	stw	zero,-68(fp)
  803488:	00003806 	br	80356c <readHighScoreBoardFromSD+0x2dc>
			currentScore += (scoreBuffer[k] - '0') * pow(10,(numDigits - 1 - k));
  80348c:	e13ff317 	ldw	r4,-52(fp)
  803490:	08082e40 	call	8082e4 <__floatsidf>
  803494:	1025883a 	mov	r18,r2
  803498:	1827883a 	mov	r19,r3
  80349c:	e0bfef17 	ldw	r2,-68(fp)
  8034a0:	1085883a 	add	r2,r2,r2
  8034a4:	1085883a 	add	r2,r2,r2
  8034a8:	e0ffef04 	addi	r3,fp,-68
  8034ac:	10c5883a 	add	r2,r2,r3
  8034b0:	10800604 	addi	r2,r2,24
  8034b4:	10800017 	ldw	r2,0(r2)
  8034b8:	113ff404 	addi	r4,r2,-48
  8034bc:	08082e40 	call	8082e4 <__floatsidf>
  8034c0:	1021883a 	mov	r16,r2
  8034c4:	1823883a 	mov	r17,r3
  8034c8:	e0fff217 	ldw	r3,-56(fp)
  8034cc:	e0bfef17 	ldw	r2,-68(fp)
  8034d0:	1885c83a 	sub	r2,r3,r2
  8034d4:	113fffc4 	addi	r4,r2,-1
  8034d8:	08082e40 	call	8082e4 <__floatsidf>
  8034dc:	100f883a 	mov	r7,r2
  8034e0:	1811883a 	mov	r8,r3
  8034e4:	0009883a 	mov	r4,zero
  8034e8:	01500934 	movhi	r5,16420
  8034ec:	380d883a 	mov	r6,r7
  8034f0:	400f883a 	mov	r7,r8
  8034f4:	08053dc0 	call	8053dc <pow>
  8034f8:	1009883a 	mov	r4,r2
  8034fc:	180b883a 	mov	r5,r3
  803500:	2005883a 	mov	r2,r4
  803504:	2807883a 	mov	r3,r5
  803508:	8009883a 	mov	r4,r16
  80350c:	880b883a 	mov	r5,r17
  803510:	100d883a 	mov	r6,r2
  803514:	180f883a 	mov	r7,r3
  803518:	0807a200 	call	807a20 <__muldf3>
  80351c:	1009883a 	mov	r4,r2
  803520:	180b883a 	mov	r5,r3
  803524:	2005883a 	mov	r2,r4
  803528:	2807883a 	mov	r3,r5
  80352c:	9009883a 	mov	r4,r18
  803530:	980b883a 	mov	r5,r19
  803534:	100d883a 	mov	r6,r2
  803538:	180f883a 	mov	r7,r3
  80353c:	08079ac0 	call	8079ac <__adddf3>
  803540:	1009883a 	mov	r4,r2
  803544:	180b883a 	mov	r5,r3
  803548:	2005883a 	mov	r2,r4
  80354c:	2807883a 	mov	r3,r5
  803550:	1009883a 	mov	r4,r2
  803554:	180b883a 	mov	r5,r3
  803558:	08083dc0 	call	8083dc <__fixdfsi>
  80355c:	e0bff315 	stw	r2,-52(fp)
			return -1;
		}

		//use scoreBuffer values (stored in char values) into a meaningful integer, currentScore.
		currentScore = 0;
		for(k = 0; k < numDigits; k++) {
  803560:	e0bfef17 	ldw	r2,-68(fp)
  803564:	10800044 	addi	r2,r2,1
  803568:	e0bfef15 	stw	r2,-68(fp)
  80356c:	e0ffef17 	ldw	r3,-68(fp)
  803570:	e0bff217 	ldw	r2,-56(fp)
  803574:	18bfc516 	blt	r3,r2,80348c <readHighScoreBoardFromSD+0x1fc>
			currentScore += (scoreBuffer[k] - '0') * pow(10,(numDigits - 1 - k));
		}
		gameScores->highScoreBoard[i] = currentScore;
  803578:	d0e72e17 	ldw	r3,-25416(gp)
  80357c:	e0bff117 	ldw	r2,-60(fp)
  803580:	1085883a 	add	r2,r2,r2
  803584:	1085883a 	add	r2,r2,r2
  803588:	10c5883a 	add	r2,r2,r3
  80358c:	10c00204 	addi	r3,r2,8
  803590:	e0bff317 	ldw	r2,-52(fp)
  803594:	18800015 	stw	r2,0(r3)
	char readValue;
	int currentScore;
	int numDigits;
	int scoreBuffer[MAXSCOREDIGITS];
	int i,j,k;
	for(i = 0; i < NUMSCORES; i++) {
  803598:	e0bff117 	ldw	r2,-60(fp)
  80359c:	10800044 	addi	r2,r2,1
  8035a0:	e0bff115 	stw	r2,-60(fp)
  8035a4:	e0bff117 	ldw	r2,-60(fp)
  8035a8:	10800290 	cmplti	r2,r2,10
  8035ac:	103f551e 	bne	r2,zero,803304 <readHighScoreBoardFromSD+0x74>
			currentScore += (scoreBuffer[k] - '0') * pow(10,(numDigits - 1 - k));
		}
		gameScores->highScoreBoard[i] = currentScore;
	}

	closeFile(fileHandle);
  8035b0:	e13ff48f 	ldh	r4,-46(fp)
  8035b4:	080434c0 	call	80434c <closeFile>
	return 0;
  8035b8:	e03fff15 	stw	zero,-4(fp)
  8035bc:	e0bfff17 	ldw	r2,-4(fp)
}
  8035c0:	e037883a 	mov	sp,fp
  8035c4:	dfc00517 	ldw	ra,20(sp)
  8035c8:	df000417 	ldw	fp,16(sp)
  8035cc:	dcc00317 	ldw	r19,12(sp)
  8035d0:	dc800217 	ldw	r18,8(sp)
  8035d4:	dc400117 	ldw	r17,4(sp)
  8035d8:	dc000017 	ldw	r16,0(sp)
  8035dc:	dec00604 	addi	sp,sp,24
  8035e0:	f800283a 	ret

008035e4 <updateHighScoreBoard>:

//function writes to the SD card, and places current players score into the high scores if
//it exceeds any of the current high scores.
//function returns if the highScore file doesnt open in memory, or if the currentScoreBoard is corrupt.
void updateHighScoreBoard(void) {
  8035e4:	defff604 	addi	sp,sp,-40
  8035e8:	dfc00915 	stw	ra,36(sp)
  8035ec:	df000815 	stw	fp,32(sp)
  8035f0:	dc400715 	stw	r17,28(sp)
  8035f4:	dc000615 	stw	r16,24(sp)
  8035f8:	df000604 	addi	fp,sp,24
	int playerScore = getCurrentPlayerScore();
  8035fc:	0803d780 	call	803d78 <getCurrentPlayerScore>
  803600:	e0bfff15 	stw	r2,-4(fp)
	unsigned short i,j;
	short scoreReplaceIndex = -1;
  803604:	00bfffc4 	movi	r2,-1
  803608:	e0bffd8d 	sth	r2,-10(fp)
	unsigned short firstDigitFound = 0;
  80360c:	e03ffd0d 	sth	zero,-12(fp)
	unsigned short digit;
	short int fileHandle = openFile(scoreFileName);
  803610:	d1200417 	ldw	r4,-32752(gp)
  803614:	080430c0 	call	80430c <openFile>
  803618:	e0bffc0d 	sth	r2,-16(fp)
	if (fileHandle == -1 || gameScores == NULL || gameScores->currentScoreBoardCorrupt == 1) {
  80361c:	e0bffc0f 	ldh	r2,-16(fp)
  803620:	10bfffe0 	cmpeqi	r2,r2,-1
  803624:	1000081e 	bne	r2,zero,803648 <updateHighScoreBoard+0x64>
  803628:	d0a72e17 	ldw	r2,-25416(gp)
  80362c:	1005003a 	cmpeq	r2,r2,zero
  803630:	1000051e 	bne	r2,zero,803648 <updateHighScoreBoard+0x64>
  803634:	d0a72e17 	ldw	r2,-25416(gp)
  803638:	10801383 	ldbu	r2,78(r2)
  80363c:	10803fcc 	andi	r2,r2,255
  803640:	10800058 	cmpnei	r2,r2,1
  803644:	1000051e 	bne	r2,zero,80365c <updateHighScoreBoard+0x78>
		printf("Error opening %s\n", scoreFileName);
  803648:	d1600417 	ldw	r5,-32752(gp)
  80364c:	010020b4 	movhi	r4,130
  803650:	212e8404 	addi	r4,r4,-17904
  803654:	08096040 	call	809604 <printf>
		return;
  803658:	0000fe06 	br	803a54 <updateHighScoreBoard+0x470>
	}

	//determine if playerScore is better than any high scores
	for(i = 0; i < NUMSCORES; i++) {
  80365c:	e03ffe8d 	sth	zero,-6(fp)
  803660:	00001406 	br	8036b4 <updateHighScoreBoard+0xd0>
		if(playerScore > gameScores->highScoreBoard[i]) {
  803664:	d0e72e17 	ldw	r3,-25416(gp)
  803668:	e0bffe8b 	ldhu	r2,-6(fp)
  80366c:	1085883a 	add	r2,r2,r2
  803670:	1085883a 	add	r2,r2,r2
  803674:	10c5883a 	add	r2,r2,r3
  803678:	10800204 	addi	r2,r2,8
  80367c:	10c00017 	ldw	r3,0(r2)
  803680:	e0bfff17 	ldw	r2,-4(fp)
  803684:	1880080e 	bge	r3,r2,8036a8 <updateHighScoreBoard+0xc4>
			printf("I found a score, %d, that is higher than other scores. Index %d\n", playerScore, i);
  803688:	e1bffe8b 	ldhu	r6,-6(fp)
  80368c:	010020b4 	movhi	r4,130
  803690:	212e9d04 	addi	r4,r4,-17804
  803694:	e17fff17 	ldw	r5,-4(fp)
  803698:	08096040 	call	809604 <printf>
			scoreReplaceIndex = i;
  80369c:	e0bffe8b 	ldhu	r2,-6(fp)
  8036a0:	e0bffd8d 	sth	r2,-10(fp)
			break; // current index needs to be replaced by
  8036a4:	00000606 	br	8036c0 <updateHighScoreBoard+0xdc>
		printf("Error opening %s\n", scoreFileName);
		return;
	}

	//determine if playerScore is better than any high scores
	for(i = 0; i < NUMSCORES; i++) {
  8036a8:	e0bffe8b 	ldhu	r2,-6(fp)
  8036ac:	10800044 	addi	r2,r2,1
  8036b0:	e0bffe8d 	sth	r2,-6(fp)
  8036b4:	e0bffe8b 	ldhu	r2,-6(fp)
  8036b8:	108002b0 	cmpltui	r2,r2,10
  8036bc:	103fe91e 	bne	r2,zero,803664 <updateHighScoreBoard+0x80>
			break; // current index needs to be replaced by
		}
	}

	//if playerScore is better than a high score, re-write to the SD card, placing currentPlayerScore in the file.
	if(scoreReplaceIndex != -1) {
  8036c0:	e0bffd8f 	ldh	r2,-10(fp)
  8036c4:	10bfffe0 	cmpeqi	r2,r2,-1
  8036c8:	1000df1e 	bne	r2,zero,803a48 <updateHighScoreBoard+0x464>
		int loopCount = NUMSCORES;
  8036cc:	00800284 	movi	r2,10
  8036d0:	e0bffb15 	stw	r2,-20(fp)
		for(i = 0; i < loopCount; i++) {
  8036d4:	e03ffe8d 	sth	zero,-6(fp)
  8036d8:	0000d806 	br	803a3c <updateHighScoreBoard+0x458>
			if(i == scoreReplaceIndex){
  8036dc:	e0fffe8b 	ldhu	r3,-6(fp)
  8036e0:	e0bffd8f 	ldh	r2,-10(fp)
  8036e4:	18806e1e 	bne	r3,r2,8038a0 <updateHighScoreBoard+0x2bc>
				printf("replacing score code at index %d\n", i);
  8036e8:	e17ffe8b 	ldhu	r5,-6(fp)
  8036ec:	010020b4 	movhi	r4,130
  8036f0:	212eae04 	addi	r4,r4,-17736
  8036f4:	08096040 	call	809604 <printf>

				char * newInitials = malloc(3*sizeof(char));
  8036f8:	010000c4 	movi	r4,3
  8036fc:	0808eb00 	call	808eb0 <malloc>
  803700:	e0bffa15 	stw	r2,-24(fp)
				*newInitials = '-';
  803704:	e0fffa17 	ldw	r3,-24(fp)
  803708:	00800b44 	movi	r2,45
  80370c:	18800005 	stb	r2,0(r3)
				*(newInitials + 1) = '-';
  803710:	e0bffa17 	ldw	r2,-24(fp)
  803714:	10c00044 	addi	r3,r2,1
  803718:	00800b44 	movi	r2,45
  80371c:	18800005 	stb	r2,0(r3)
				*(newInitials + 2) = '-';
  803720:	e0bffa17 	ldw	r2,-24(fp)
  803724:	10c00084 	addi	r3,r2,2
  803728:	00800b44 	movi	r2,45
  80372c:	18800005 	stb	r2,0(r3)
				obtainUserInitials(newInitials);
  803730:	e13ffa17 	ldw	r4,-24(fp)
  803734:	0803a700 	call	803a70 <obtainUserInitials>
				for(j = 0; j < NUMINITIALS; j++){
  803738:	e03ffe0d 	sth	zero,-8(fp)
  80373c:	00000d06 	br	803774 <updateHighScoreBoard+0x190>
					alt_up_sd_card_write(fileHandle, newInitials[j]);
  803740:	e13ffc0f 	ldh	r4,-16(fp)
  803744:	e0bffe0b 	ldhu	r2,-8(fp)
  803748:	1007883a 	mov	r3,r2
  80374c:	e0bffa17 	ldw	r2,-24(fp)
  803750:	1885883a 	add	r2,r3,r2
  803754:	10800003 	ldbu	r2,0(r2)
  803758:	11403fcc 	andi	r5,r2,255
  80375c:	2940201c 	xori	r5,r5,128
  803760:	297fe004 	addi	r5,r5,-128
  803764:	0819ba80 	call	819ba8 <alt_up_sd_card_write>
				char * newInitials = malloc(3*sizeof(char));
				*newInitials = '-';
				*(newInitials + 1) = '-';
				*(newInitials + 2) = '-';
				obtainUserInitials(newInitials);
				for(j = 0; j < NUMINITIALS; j++){
  803768:	e0bffe0b 	ldhu	r2,-8(fp)
  80376c:	10800044 	addi	r2,r2,1
  803770:	e0bffe0d 	sth	r2,-8(fp)
  803774:	e0bffe0b 	ldhu	r2,-8(fp)
  803778:	108000f0 	cmpltui	r2,r2,3
  80377c:	103ff01e 	bne	r2,zero,803740 <updateHighScoreBoard+0x15c>
					alt_up_sd_card_write(fileHandle, newInitials[j]);
				}
				free(newInitials);
  803780:	e13ffa17 	ldw	r4,-24(fp)
  803784:	0808e9c0 	call	808e9c <free>

				alt_up_sd_card_write(fileHandle, ' ');
  803788:	e13ffc0f 	ldh	r4,-16(fp)
  80378c:	01400804 	movi	r5,32
  803790:	0819ba80 	call	819ba8 <alt_up_sd_card_write>
				firstDigitFound = 0;
  803794:	e03ffd0d 	sth	zero,-12(fp)
				for(j = 0; j < MAXSCOREDIGITS; j++){
  803798:	e03ffe0d 	sth	zero,-8(fp)
  80379c:	00003706 	br	80387c <updateHighScoreBoard+0x298>
					digit = ((int)(gameScores->currentPlayerScore / pow(10,(MAXSCOREDIGITS - 1 - j)))%10);
  8037a0:	d0a72e17 	ldw	r2,-25416(gp)
  8037a4:	11000017 	ldw	r4,0(r2)
  8037a8:	08082e40 	call	8082e4 <__floatsidf>
  8037ac:	1021883a 	mov	r16,r2
  8037b0:	1823883a 	mov	r17,r3
  8037b4:	e0fffe0b 	ldhu	r3,-8(fp)
  8037b8:	00800244 	movi	r2,9
  8037bc:	10c9c83a 	sub	r4,r2,r3
  8037c0:	08082e40 	call	8082e4 <__floatsidf>
  8037c4:	100f883a 	mov	r7,r2
  8037c8:	1811883a 	mov	r8,r3
  8037cc:	0009883a 	mov	r4,zero
  8037d0:	01500934 	movhi	r5,16420
  8037d4:	380d883a 	mov	r6,r7
  8037d8:	400f883a 	mov	r7,r8
  8037dc:	08053dc0 	call	8053dc <pow>
  8037e0:	100f883a 	mov	r7,r2
  8037e4:	1811883a 	mov	r8,r3
  8037e8:	8009883a 	mov	r4,r16
  8037ec:	880b883a 	mov	r5,r17
  8037f0:	380d883a 	mov	r6,r7
  8037f4:	400f883a 	mov	r7,r8
  8037f8:	0807de40 	call	807de4 <__divdf3>
  8037fc:	1009883a 	mov	r4,r2
  803800:	180b883a 	mov	r5,r3
  803804:	2005883a 	mov	r2,r4
  803808:	2807883a 	mov	r3,r5
  80380c:	1009883a 	mov	r4,r2
  803810:	180b883a 	mov	r5,r3
  803814:	08083dc0 	call	8083dc <__fixdfsi>
  803818:	1009883a 	mov	r4,r2
  80381c:	01400284 	movi	r5,10
  803820:	08085c80 	call	8085c8 <__modsi3>
  803824:	e0bffc8d 	sth	r2,-14(fp)
					if(digit != 0 && firstDigitFound == 0){
  803828:	e0bffc8b 	ldhu	r2,-14(fp)
  80382c:	1005003a 	cmpeq	r2,r2,zero
  803830:	1000051e 	bne	r2,zero,803848 <updateHighScoreBoard+0x264>
  803834:	e0bffd0b 	ldhu	r2,-12(fp)
  803838:	1004c03a 	cmpne	r2,r2,zero
  80383c:	1000021e 	bne	r2,zero,803848 <updateHighScoreBoard+0x264>
						firstDigitFound = 1;
  803840:	00800044 	movi	r2,1
  803844:	e0bffd0d 	sth	r2,-12(fp)
					}
					if(firstDigitFound == 1){
  803848:	e0bffd0b 	ldhu	r2,-12(fp)
  80384c:	10800058 	cmpnei	r2,r2,1
  803850:	1000071e 	bne	r2,zero,803870 <updateHighScoreBoard+0x28c>
						alt_up_sd_card_write(fileHandle, (digit + '0'));
  803854:	e13ffc0f 	ldh	r4,-16(fp)
  803858:	e0bffc8b 	ldhu	r2,-14(fp)
  80385c:	10800c04 	addi	r2,r2,48
  803860:	11403fcc 	andi	r5,r2,255
  803864:	2940201c 	xori	r5,r5,128
  803868:	297fe004 	addi	r5,r5,-128
  80386c:	0819ba80 	call	819ba8 <alt_up_sd_card_write>
				}
				free(newInitials);

				alt_up_sd_card_write(fileHandle, ' ');
				firstDigitFound = 0;
				for(j = 0; j < MAXSCOREDIGITS; j++){
  803870:	e0bffe0b 	ldhu	r2,-8(fp)
  803874:	10800044 	addi	r2,r2,1
  803878:	e0bffe0d 	sth	r2,-8(fp)
  80387c:	e0bffe0b 	ldhu	r2,-8(fp)
  803880:	108002b0 	cmpltui	r2,r2,10
  803884:	103fc61e 	bne	r2,zero,8037a0 <updateHighScoreBoard+0x1bc>
					}
					if(firstDigitFound == 1){
						alt_up_sd_card_write(fileHandle, (digit + '0'));
					}
				}
				alt_up_sd_card_write(fileHandle, ' ');
  803888:	e13ffc0f 	ldh	r4,-16(fp)
  80388c:	01400804 	movi	r5,32
  803890:	0819ba80 	call	819ba8 <alt_up_sd_card_write>
				loopCount--;
  803894:	e0bffb17 	ldw	r2,-20(fp)
  803898:	10bfffc4 	addi	r2,r2,-1
  80389c:	e0bffb15 	stw	r2,-20(fp)
			}

			printf("writing high scores, in main loop, i = %d\n", i);
  8038a0:	e17ffe8b 	ldhu	r5,-6(fp)
  8038a4:	010020b4 	movhi	r4,130
  8038a8:	212eb704 	addi	r4,r4,-17700
  8038ac:	08096040 	call	809604 <printf>
			//write scores that are currently saved as high scores back to SD card in correct position.
			for(j = 0; j < NUMINITIALS; j++){
  8038b0:	e03ffe0d 	sth	zero,-8(fp)
  8038b4:	00001306 	br	803904 <updateHighScoreBoard+0x320>
				alt_up_sd_card_write(fileHandle, gameScores->highScoreBoardInits[i][j]);
  8038b8:	e1bffc0f 	ldh	r6,-16(fp)
  8038bc:	d1672e17 	ldw	r5,-25416(gp)
  8038c0:	e0fffe8b 	ldhu	r3,-6(fp)
  8038c4:	e13ffe0b 	ldhu	r4,-8(fp)
  8038c8:	1805883a 	mov	r2,r3
  8038cc:	1085883a 	add	r2,r2,r2
  8038d0:	10c5883a 	add	r2,r2,r3
  8038d4:	1145883a 	add	r2,r2,r5
  8038d8:	1105883a 	add	r2,r2,r4
  8038dc:	10800c04 	addi	r2,r2,48
  8038e0:	10800003 	ldbu	r2,0(r2)
  8038e4:	11403fcc 	andi	r5,r2,255
  8038e8:	2940201c 	xori	r5,r5,128
  8038ec:	297fe004 	addi	r5,r5,-128
  8038f0:	3009883a 	mov	r4,r6
  8038f4:	0819ba80 	call	819ba8 <alt_up_sd_card_write>
				loopCount--;
			}

			printf("writing high scores, in main loop, i = %d\n", i);
			//write scores that are currently saved as high scores back to SD card in correct position.
			for(j = 0; j < NUMINITIALS; j++){
  8038f8:	e0bffe0b 	ldhu	r2,-8(fp)
  8038fc:	10800044 	addi	r2,r2,1
  803900:	e0bffe0d 	sth	r2,-8(fp)
  803904:	e0bffe0b 	ldhu	r2,-8(fp)
  803908:	108000f0 	cmpltui	r2,r2,3
  80390c:	103fea1e 	bne	r2,zero,8038b8 <updateHighScoreBoard+0x2d4>
				alt_up_sd_card_write(fileHandle, gameScores->highScoreBoardInits[i][j]);
			}
			alt_up_sd_card_write(fileHandle, ' ');
  803910:	e13ffc0f 	ldh	r4,-16(fp)
  803914:	01400804 	movi	r5,32
  803918:	0819ba80 	call	819ba8 <alt_up_sd_card_write>
			firstDigitFound = 0;
  80391c:	e03ffd0d 	sth	zero,-12(fp)
			for(j = 0; j < MAXSCOREDIGITS; j++){
  803920:	e03ffe0d 	sth	zero,-8(fp)
  803924:	00003c06 	br	803a18 <updateHighScoreBoard+0x434>
				digit = ((int)(gameScores->highScoreBoard[i] / pow(10,(MAXSCOREDIGITS - 1 - j)))%10);
  803928:	d0e72e17 	ldw	r3,-25416(gp)
  80392c:	e0bffe8b 	ldhu	r2,-6(fp)
  803930:	1085883a 	add	r2,r2,r2
  803934:	1085883a 	add	r2,r2,r2
  803938:	10c5883a 	add	r2,r2,r3
  80393c:	10800204 	addi	r2,r2,8
  803940:	11000017 	ldw	r4,0(r2)
  803944:	08082e40 	call	8082e4 <__floatsidf>
  803948:	1021883a 	mov	r16,r2
  80394c:	1823883a 	mov	r17,r3
  803950:	e0fffe0b 	ldhu	r3,-8(fp)
  803954:	00800244 	movi	r2,9
  803958:	10c9c83a 	sub	r4,r2,r3
  80395c:	08082e40 	call	8082e4 <__floatsidf>
  803960:	100f883a 	mov	r7,r2
  803964:	1811883a 	mov	r8,r3
  803968:	0009883a 	mov	r4,zero
  80396c:	01500934 	movhi	r5,16420
  803970:	380d883a 	mov	r6,r7
  803974:	400f883a 	mov	r7,r8
  803978:	08053dc0 	call	8053dc <pow>
  80397c:	100f883a 	mov	r7,r2
  803980:	1811883a 	mov	r8,r3
  803984:	8009883a 	mov	r4,r16
  803988:	880b883a 	mov	r5,r17
  80398c:	380d883a 	mov	r6,r7
  803990:	400f883a 	mov	r7,r8
  803994:	0807de40 	call	807de4 <__divdf3>
  803998:	1009883a 	mov	r4,r2
  80399c:	180b883a 	mov	r5,r3
  8039a0:	2005883a 	mov	r2,r4
  8039a4:	2807883a 	mov	r3,r5
  8039a8:	1009883a 	mov	r4,r2
  8039ac:	180b883a 	mov	r5,r3
  8039b0:	08083dc0 	call	8083dc <__fixdfsi>
  8039b4:	1009883a 	mov	r4,r2
  8039b8:	01400284 	movi	r5,10
  8039bc:	08085c80 	call	8085c8 <__modsi3>
  8039c0:	e0bffc8d 	sth	r2,-14(fp)
				if(digit != 0 && firstDigitFound == 0){
  8039c4:	e0bffc8b 	ldhu	r2,-14(fp)
  8039c8:	1005003a 	cmpeq	r2,r2,zero
  8039cc:	1000051e 	bne	r2,zero,8039e4 <updateHighScoreBoard+0x400>
  8039d0:	e0bffd0b 	ldhu	r2,-12(fp)
  8039d4:	1004c03a 	cmpne	r2,r2,zero
  8039d8:	1000021e 	bne	r2,zero,8039e4 <updateHighScoreBoard+0x400>
					firstDigitFound = 1;
  8039dc:	00800044 	movi	r2,1
  8039e0:	e0bffd0d 	sth	r2,-12(fp)
				}
				if(firstDigitFound == 1){
  8039e4:	e0bffd0b 	ldhu	r2,-12(fp)
  8039e8:	10800058 	cmpnei	r2,r2,1
  8039ec:	1000071e 	bne	r2,zero,803a0c <updateHighScoreBoard+0x428>
					alt_up_sd_card_write(fileHandle, (digit + '0'));
  8039f0:	e13ffc0f 	ldh	r4,-16(fp)
  8039f4:	e0bffc8b 	ldhu	r2,-14(fp)
  8039f8:	10800c04 	addi	r2,r2,48
  8039fc:	11403fcc 	andi	r5,r2,255
  803a00:	2940201c 	xori	r5,r5,128
  803a04:	297fe004 	addi	r5,r5,-128
  803a08:	0819ba80 	call	819ba8 <alt_up_sd_card_write>
			for(j = 0; j < NUMINITIALS; j++){
				alt_up_sd_card_write(fileHandle, gameScores->highScoreBoardInits[i][j]);
			}
			alt_up_sd_card_write(fileHandle, ' ');
			firstDigitFound = 0;
			for(j = 0; j < MAXSCOREDIGITS; j++){
  803a0c:	e0bffe0b 	ldhu	r2,-8(fp)
  803a10:	10800044 	addi	r2,r2,1
  803a14:	e0bffe0d 	sth	r2,-8(fp)
  803a18:	e0bffe0b 	ldhu	r2,-8(fp)
  803a1c:	108002b0 	cmpltui	r2,r2,10
  803a20:	103fc11e 	bne	r2,zero,803928 <updateHighScoreBoard+0x344>
				}
				if(firstDigitFound == 1){
					alt_up_sd_card_write(fileHandle, (digit + '0'));
				}
			}
			alt_up_sd_card_write(fileHandle, ' ');
  803a24:	e13ffc0f 	ldh	r4,-16(fp)
  803a28:	01400804 	movi	r5,32
  803a2c:	0819ba80 	call	819ba8 <alt_up_sd_card_write>
	}

	//if playerScore is better than a high score, re-write to the SD card, placing currentPlayerScore in the file.
	if(scoreReplaceIndex != -1) {
		int loopCount = NUMSCORES;
		for(i = 0; i < loopCount; i++) {
  803a30:	e0bffe8b 	ldhu	r2,-6(fp)
  803a34:	10800044 	addi	r2,r2,1
  803a38:	e0bffe8d 	sth	r2,-6(fp)
  803a3c:	e0fffe8b 	ldhu	r3,-6(fp)
  803a40:	e0bffb17 	ldw	r2,-20(fp)
  803a44:	18bf2516 	blt	r3,r2,8036dc <updateHighScoreBoard+0xf8>
			}
			alt_up_sd_card_write(fileHandle, ' ');
		}
	}

	closeFile(fileHandle);
  803a48:	e13ffc0f 	ldh	r4,-16(fp)
  803a4c:	080434c0 	call	80434c <closeFile>

	//reload new written data back into game memory.
	readHighScoreBoardFromSD();
  803a50:	08032900 	call	803290 <readHighScoreBoardFromSD>

	return;
}
  803a54:	e037883a 	mov	sp,fp
  803a58:	dfc00317 	ldw	ra,12(sp)
  803a5c:	df000217 	ldw	fp,8(sp)
  803a60:	dc400117 	ldw	r17,4(sp)
  803a64:	dc000017 	ldw	r16,0(sp)
  803a68:	dec00404 	addi	sp,sp,16
  803a6c:	f800283a 	ret

00803a70 <obtainUserInitials>:

//get user input for initials if they are on the high score board
void obtainUserInitials(char * initials){
  803a70:	defff504 	addi	sp,sp,-44
  803a74:	dfc00a15 	stw	ra,40(sp)
  803a78:	df000915 	stw	fp,36(sp)
  803a7c:	df000904 	addi	fp,sp,36
  803a80:	e13fff15 	stw	r4,-4(fp)

	int numInitials = 3;
  803a84:	008000c4 	movi	r2,3
  803a88:	e0bffe15 	stw	r2,-8(fp)
	unsigned int charChoice = 0;
  803a8c:	e03ffd15 	stw	zero,-12(fp)
	int i;
	char keyInput;
	short int edgeDetect0 = 0;
  803a90:	e03ffb0d 	sth	zero,-20(fp)
	short int edgeDetect1 = 0;
  803a94:	e03ffa8d 	sth	zero,-22(fp)
	short int edgeDetect2 = 0;
  803a98:	e03ffa0d 	sth	zero,-24(fp)
	keyInput = IORD_8DIRECT(KEYS_BASE, 0);
  803a9c:	00804034 	movhi	r2,256
  803aa0:	10842004 	addi	r2,r2,4224
  803aa4:	10800023 	ldbuio	r2,0(r2)
  803aa8:	e0bffb85 	stb	r2,-18(fp)
	char key0 = keyInput & 0x01;
  803aac:	e0bffb83 	ldbu	r2,-18(fp)
  803ab0:	1080004c 	andi	r2,r2,1
  803ab4:	e0bff985 	stb	r2,-26(fp)
	char key1 = keyInput & 0x02;
  803ab8:	e0bffb83 	ldbu	r2,-18(fp)
  803abc:	1080008c 	andi	r2,r2,2
  803ac0:	e0bff945 	stb	r2,-27(fp)
	char key2 = keyInput & 0x04;
  803ac4:	e0bffb83 	ldbu	r2,-18(fp)
  803ac8:	1080010c 	andi	r2,r2,4
  803acc:	e0bff905 	stb	r2,-28(fp)
	int xPos = 20;
  803ad0:	00800504 	movi	r2,20
  803ad4:	e0bff815 	stw	r2,-32(fp)
	int yPos = 20;
  803ad8:	00800504 	movi	r2,20
  803adc:	e0bff715 	stw	r2,-36(fp)

	//0x41 + x(0-25) is alphabet in ascii.
	alt_up_char_buffer_string(char_buffer, "NEW HIGH SCORE!!!", xPos, yPos-3);
  803ae0:	d1271517 	ldw	r4,-25516(gp)
  803ae4:	e1bff817 	ldw	r6,-32(fp)
  803ae8:	e0bff717 	ldw	r2,-36(fp)
  803aec:	10bfff44 	addi	r2,r2,-3
  803af0:	100f883a 	mov	r7,r2
  803af4:	014020b4 	movhi	r5,130
  803af8:	296ec204 	addi	r5,r5,-17656
  803afc:	08148880 	call	814888 <alt_up_char_buffer_string>
	alt_up_char_buffer_string(char_buffer, "use key1 to go up, key2 to go down,", xPos, yPos-2);
  803b00:	d1271517 	ldw	r4,-25516(gp)
  803b04:	e1bff817 	ldw	r6,-32(fp)
  803b08:	e0bff717 	ldw	r2,-36(fp)
  803b0c:	10bfff84 	addi	r2,r2,-2
  803b10:	100f883a 	mov	r7,r2
  803b14:	014020b4 	movhi	r5,130
  803b18:	296ec704 	addi	r5,r5,-17636
  803b1c:	08148880 	call	814888 <alt_up_char_buffer_string>
	alt_up_char_buffer_string(char_buffer, "and key0 to lock in choice:", xPos, yPos-1);
  803b20:	d1271517 	ldw	r4,-25516(gp)
  803b24:	e1bff817 	ldw	r6,-32(fp)
  803b28:	e0bff717 	ldw	r2,-36(fp)
  803b2c:	10bfffc4 	addi	r2,r2,-1
  803b30:	100f883a 	mov	r7,r2
  803b34:	014020b4 	movhi	r5,130
  803b38:	296ed004 	addi	r5,r5,-17600
  803b3c:	08148880 	call	814888 <alt_up_char_buffer_string>
	for(i = 0; i < numInitials; i++) {
  803b40:	e03ffc15 	stw	zero,-16(fp)
  803b44:	00006006 	br	803cc8 <obtainUserInitials+0x258>
		charChoice = 0;
  803b48:	e03ffd15 	stw	zero,-12(fp)
		while(1) {
			keyInput = IORD_8DIRECT(KEYS_BASE, 0);
  803b4c:	00804034 	movhi	r2,256
  803b50:	10842004 	addi	r2,r2,4224
  803b54:	10800023 	ldbuio	r2,0(r2)
  803b58:	e0bffb85 	stb	r2,-18(fp)
			key0 = keyInput & 0x01;
  803b5c:	e0bffb83 	ldbu	r2,-18(fp)
  803b60:	1080004c 	andi	r2,r2,1
  803b64:	e0bff985 	stb	r2,-26(fp)
			key1 = keyInput & 0x02;
  803b68:	e0bffb83 	ldbu	r2,-18(fp)
  803b6c:	1080008c 	andi	r2,r2,2
  803b70:	e0bff945 	stb	r2,-27(fp)
			key2 = keyInput & 0x04;
  803b74:	e0bffb83 	ldbu	r2,-18(fp)
  803b78:	1080010c 	andi	r2,r2,4
  803b7c:	e0bff905 	stb	r2,-28(fp)

			alt_up_char_buffer_string(char_buffer, initials, xPos, yPos);
  803b80:	d1271517 	ldw	r4,-25516(gp)
  803b84:	e1bff817 	ldw	r6,-32(fp)
  803b88:	e1fff717 	ldw	r7,-36(fp)
  803b8c:	e17fff17 	ldw	r5,-4(fp)
  803b90:	08148880 	call	814888 <alt_up_char_buffer_string>
			if (!key0 && (edgeDetect0 == 0)) {
  803b94:	e0bff987 	ldb	r2,-26(fp)
  803b98:	1004c03a 	cmpne	r2,r2,zero
  803b9c:	1000061e 	bne	r2,zero,803bb8 <obtainUserInitials+0x148>
  803ba0:	e0bffb0f 	ldh	r2,-20(fp)
  803ba4:	1004c03a 	cmpne	r2,r2,zero
  803ba8:	1000031e 	bne	r2,zero,803bb8 <obtainUserInitials+0x148>
				edgeDetect0 = 1;
  803bac:	00800044 	movi	r2,1
  803bb0:	e0bffb0d 	sth	r2,-20(fp)
			key0 = keyInput & 0x01;
			key1 = keyInput & 0x02;
			key2 = keyInput & 0x04;

			alt_up_char_buffer_string(char_buffer, initials, xPos, yPos);
			if (!key0 && (edgeDetect0 == 0)) {
  803bb4:	00000b06 	br	803be4 <obtainUserInitials+0x174>
				edgeDetect0 = 1;
			} else if (key0 && (edgeDetect0 == 1)) {
  803bb8:	e0bff987 	ldb	r2,-26(fp)
  803bbc:	1005003a 	cmpeq	r2,r2,zero
  803bc0:	1000081e 	bne	r2,zero,803be4 <obtainUserInitials+0x174>
  803bc4:	e0bffb0f 	ldh	r2,-20(fp)
  803bc8:	10800058 	cmpnei	r2,r2,1
  803bcc:	1000051e 	bne	r2,zero,803be4 <obtainUserInitials+0x174>
				edgeDetect0 = 0;
  803bd0:	e03ffb0d 	sth	zero,-20(fp)

	//0x41 + x(0-25) is alphabet in ascii.
	alt_up_char_buffer_string(char_buffer, "NEW HIGH SCORE!!!", xPos, yPos-3);
	alt_up_char_buffer_string(char_buffer, "use key1 to go up, key2 to go down,", xPos, yPos-2);
	alt_up_char_buffer_string(char_buffer, "and key0 to lock in choice:", xPos, yPos-1);
	for(i = 0; i < numInitials; i++) {
  803bd4:	e0bffc17 	ldw	r2,-16(fp)
  803bd8:	10800044 	addi	r2,r2,1
  803bdc:	e0bffc15 	stw	r2,-16(fp)
  803be0:	00003906 	br	803cc8 <obtainUserInitials+0x258>
				edgeDetect0 = 1;
			} else if (key0 && (edgeDetect0 == 1)) {
				edgeDetect0 = 0;
				break;
			}
			if (!key1 && (edgeDetect1 == 0)) {
  803be4:	e0bff947 	ldb	r2,-27(fp)
  803be8:	1004c03a 	cmpne	r2,r2,zero
  803bec:	1000061e 	bne	r2,zero,803c08 <obtainUserInitials+0x198>
  803bf0:	e0bffa8f 	ldh	r2,-22(fp)
  803bf4:	1004c03a 	cmpne	r2,r2,zero
  803bf8:	1000031e 	bne	r2,zero,803c08 <obtainUserInitials+0x198>
				edgeDetect1 = 1;
  803bfc:	00800044 	movi	r2,1
  803c00:	e0bffa8d 	sth	r2,-22(fp)
				edgeDetect0 = 1;
			} else if (key0 && (edgeDetect0 == 1)) {
				edgeDetect0 = 0;
				break;
			}
			if (!key1 && (edgeDetect1 == 0)) {
  803c04:	00000f06 	br	803c44 <obtainUserInitials+0x1d4>
				edgeDetect1 = 1;
			} else if (key1 && (edgeDetect1 == 1)) {
  803c08:	e0bff947 	ldb	r2,-27(fp)
  803c0c:	1005003a 	cmpeq	r2,r2,zero
  803c10:	10000c1e 	bne	r2,zero,803c44 <obtainUserInitials+0x1d4>
  803c14:	e0bffa8f 	ldh	r2,-22(fp)
  803c18:	10800058 	cmpnei	r2,r2,1
  803c1c:	1000091e 	bne	r2,zero,803c44 <obtainUserInitials+0x1d4>
				edgeDetect1 = 0;
  803c20:	e03ffa8d 	sth	zero,-22(fp)
				if(charChoice < 25){
  803c24:	e0bffd17 	ldw	r2,-12(fp)
  803c28:	10800668 	cmpgeui	r2,r2,25
  803c2c:	1000041e 	bne	r2,zero,803c40 <obtainUserInitials+0x1d0>
					charChoice++;
  803c30:	e0bffd17 	ldw	r2,-12(fp)
  803c34:	10800044 	addi	r2,r2,1
  803c38:	e0bffd15 	stw	r2,-12(fp)
  803c3c:	00000106 	br	803c44 <obtainUserInitials+0x1d4>
				} else {
					charChoice = 0;
  803c40:	e03ffd15 	stw	zero,-12(fp)
				}
			}
			if (!key2 && (edgeDetect2 == 0)) {
  803c44:	e0bff907 	ldb	r2,-28(fp)
  803c48:	1004c03a 	cmpne	r2,r2,zero
  803c4c:	1000061e 	bne	r2,zero,803c68 <obtainUserInitials+0x1f8>
  803c50:	e0bffa0f 	ldh	r2,-24(fp)
  803c54:	1004c03a 	cmpne	r2,r2,zero
  803c58:	1000031e 	bne	r2,zero,803c68 <obtainUserInitials+0x1f8>
				edgeDetect2 = 1;
  803c5c:	00800044 	movi	r2,1
  803c60:	e0bffa0d 	sth	r2,-24(fp)
					charChoice++;
				} else {
					charChoice = 0;
				}
			}
			if (!key2 && (edgeDetect2 == 0)) {
  803c64:	00001006 	br	803ca8 <obtainUserInitials+0x238>
				edgeDetect2 = 1;
			} else if (key2 && (edgeDetect2 == 1)) {
  803c68:	e0bff907 	ldb	r2,-28(fp)
  803c6c:	1005003a 	cmpeq	r2,r2,zero
  803c70:	10000d1e 	bne	r2,zero,803ca8 <obtainUserInitials+0x238>
  803c74:	e0bffa0f 	ldh	r2,-24(fp)
  803c78:	10800058 	cmpnei	r2,r2,1
  803c7c:	10000a1e 	bne	r2,zero,803ca8 <obtainUserInitials+0x238>
				edgeDetect2 = 0;
  803c80:	e03ffa0d 	sth	zero,-24(fp)
				if(charChoice > 0) {
  803c84:	e0bffd17 	ldw	r2,-12(fp)
  803c88:	1005003a 	cmpeq	r2,r2,zero
  803c8c:	1000041e 	bne	r2,zero,803ca0 <obtainUserInitials+0x230>
					charChoice--;
  803c90:	e0bffd17 	ldw	r2,-12(fp)
  803c94:	10bfffc4 	addi	r2,r2,-1
  803c98:	e0bffd15 	stw	r2,-12(fp)
  803c9c:	00000206 	br	803ca8 <obtainUserInitials+0x238>
				} else {
					charChoice = 25;
  803ca0:	00800644 	movi	r2,25
  803ca4:	e0bffd15 	stw	r2,-12(fp)
				}

			}
			initials[i] = 0x41 + charChoice;
  803ca8:	e0bffc17 	ldw	r2,-16(fp)
  803cac:	1007883a 	mov	r3,r2
  803cb0:	e0bfff17 	ldw	r2,-4(fp)
  803cb4:	1887883a 	add	r3,r3,r2
  803cb8:	e0bffd17 	ldw	r2,-12(fp)
  803cbc:	10801044 	addi	r2,r2,65
  803cc0:	18800005 	stb	r2,0(r3)
		}
  803cc4:	003fa106 	br	803b4c <obtainUserInitials+0xdc>

	//0x41 + x(0-25) is alphabet in ascii.
	alt_up_char_buffer_string(char_buffer, "NEW HIGH SCORE!!!", xPos, yPos-3);
	alt_up_char_buffer_string(char_buffer, "use key1 to go up, key2 to go down,", xPos, yPos-2);
	alt_up_char_buffer_string(char_buffer, "and key0 to lock in choice:", xPos, yPos-1);
	for(i = 0; i < numInitials; i++) {
  803cc8:	e0fffc17 	ldw	r3,-16(fp)
  803ccc:	e0bffe17 	ldw	r2,-8(fp)
  803cd0:	18bf9d16 	blt	r3,r2,803b48 <obtainUserInitials+0xd8>
			}
			initials[i] = 0x41 + charChoice;
		}
	}

	alt_up_char_buffer_clear(char_buffer); // clear screen
  803cd4:	d1271517 	ldw	r4,-25516(gp)
  803cd8:	081499c0 	call	81499c <alt_up_char_buffer_clear>

	printf("initials read as: %c%c%c", initials[0], initials[1], initials[2]);
  803cdc:	e0bfff17 	ldw	r2,-4(fp)
  803ce0:	10800003 	ldbu	r2,0(r2)
  803ce4:	11403fcc 	andi	r5,r2,255
  803ce8:	2940201c 	xori	r5,r5,128
  803cec:	297fe004 	addi	r5,r5,-128
  803cf0:	e0bfff17 	ldw	r2,-4(fp)
  803cf4:	10800044 	addi	r2,r2,1
  803cf8:	10800003 	ldbu	r2,0(r2)
  803cfc:	11803fcc 	andi	r6,r2,255
  803d00:	3180201c 	xori	r6,r6,128
  803d04:	31bfe004 	addi	r6,r6,-128
  803d08:	e0bfff17 	ldw	r2,-4(fp)
  803d0c:	10800084 	addi	r2,r2,2
  803d10:	10800003 	ldbu	r2,0(r2)
  803d14:	11c03fcc 	andi	r7,r2,255
  803d18:	39c0201c 	xori	r7,r7,128
  803d1c:	39ffe004 	addi	r7,r7,-128
  803d20:	010020b4 	movhi	r4,130
  803d24:	212ed704 	addi	r4,r4,-17572
  803d28:	08096040 	call	809604 <printf>

	return;
}
  803d2c:	e037883a 	mov	sp,fp
  803d30:	dfc00117 	ldw	ra,4(sp)
  803d34:	df000017 	ldw	fp,0(sp)
  803d38:	dec00204 	addi	sp,sp,8
  803d3c:	f800283a 	ret

00803d40 <updateCurrentPlayerScore>:


//increment player score by deltaScore
void updateCurrentPlayerScore(int deltaScore) {
  803d40:	defffe04 	addi	sp,sp,-8
  803d44:	df000115 	stw	fp,4(sp)
  803d48:	df000104 	addi	fp,sp,4
  803d4c:	e13fff15 	stw	r4,-4(fp)
	gameScores->currentPlayerScore += deltaScore;
  803d50:	d1272e17 	ldw	r4,-25416(gp)
  803d54:	d0a72e17 	ldw	r2,-25416(gp)
  803d58:	10c00017 	ldw	r3,0(r2)
  803d5c:	e0bfff17 	ldw	r2,-4(fp)
  803d60:	1885883a 	add	r2,r3,r2
  803d64:	20800015 	stw	r2,0(r4)
	return;
}
  803d68:	e037883a 	mov	sp,fp
  803d6c:	df000017 	ldw	fp,0(sp)
  803d70:	dec00104 	addi	sp,sp,4
  803d74:	f800283a 	ret

00803d78 <getCurrentPlayerScore>:

//accessor: get score
int getCurrentPlayerScore() {
  803d78:	deffff04 	addi	sp,sp,-4
  803d7c:	df000015 	stw	fp,0(sp)
  803d80:	d839883a 	mov	fp,sp
	return gameScores->currentPlayerScore;
  803d84:	d0a72e17 	ldw	r2,-25416(gp)
  803d88:	10800017 	ldw	r2,0(r2)
}
  803d8c:	e037883a 	mov	sp,fp
  803d90:	df000017 	ldw	fp,0(sp)
  803d94:	dec00104 	addi	sp,sp,4
  803d98:	f800283a 	ret

00803d9c <setCurrentPlayerLives>:

//mutator: set lives to newNumLives
void setCurrentPlayerLives(int newNumLives){
  803d9c:	defffe04 	addi	sp,sp,-8
  803da0:	df000115 	stw	fp,4(sp)
  803da4:	df000104 	addi	fp,sp,4
  803da8:	e13fff15 	stw	r4,-4(fp)
	gameScores->currentPlayerLives = newNumLives;
  803dac:	d0e72e17 	ldw	r3,-25416(gp)
  803db0:	e0bfff17 	ldw	r2,-4(fp)
  803db4:	18800115 	stw	r2,4(r3)
}
  803db8:	e037883a 	mov	sp,fp
  803dbc:	df000017 	ldw	fp,0(sp)
  803dc0:	dec00104 	addi	sp,sp,4
  803dc4:	f800283a 	ret

00803dc8 <getCurrentPlayerLives>:

//accessor: get lives
int getCurrentPlayerLives(void) {
  803dc8:	deffff04 	addi	sp,sp,-4
  803dcc:	df000015 	stw	fp,0(sp)
  803dd0:	d839883a 	mov	fp,sp
	return gameScores->currentPlayerLives;
  803dd4:	d0a72e17 	ldw	r2,-25416(gp)
  803dd8:	10800117 	ldw	r2,4(r2)
}
  803ddc:	e037883a 	mov	sp,fp
  803de0:	df000017 	ldw	fp,0(sp)
  803de4:	dec00104 	addi	sp,sp,4
  803de8:	f800283a 	ret

00803dec <drawScore>:

//purpose: overlay current scoreboard values onto the screen.
void drawScore(void){
  803dec:	deffee04 	addi	sp,sp,-72
  803df0:	dfc01115 	stw	ra,68(sp)
  803df4:	df001015 	stw	fp,64(sp)
  803df8:	dc400f15 	stw	r17,60(sp)
  803dfc:	dc000e15 	stw	r16,56(sp)
  803e00:	df000e04 	addi	fp,sp,56
	char scoreValues[32];// = malloc(sizeof(char) * NUMINITIALS); // scores wont exceed 10, and names are 3
	int i,j;
	int digit;
	int firstNonZeroDig;
	int xPos = 35;
  803e04:	008008c4 	movi	r2,35
  803e08:	e0bff315 	stw	r2,-52(fp)
	int ypos = 25;
  803e0c:	00800644 	movi	r2,25
  803e10:	e0bff215 	stw	r2,-56(fp)

	alt_up_char_buffer_string(char_buffer, "**HIGH SCORES**" , xPos, ypos - 2);
  803e14:	d1271517 	ldw	r4,-25516(gp)
  803e18:	e1bff317 	ldw	r6,-52(fp)
  803e1c:	e0bff217 	ldw	r2,-56(fp)
  803e20:	10bfff84 	addi	r2,r2,-2
  803e24:	100f883a 	mov	r7,r2
  803e28:	014020b4 	movhi	r5,130
  803e2c:	296ede04 	addi	r5,r5,-17544
  803e30:	08148880 	call	814888 <alt_up_char_buffer_string>

	for(i = 0; i < NUMSCORES; i++) {
  803e34:	e03ff715 	stw	zero,-36(fp)
  803e38:	00007006 	br	803ffc <drawScore+0x210>
		scoreValues[0] = gameScores->highScoreBoardInits[i][0];
  803e3c:	d1272e17 	ldw	r4,-25416(gp)
  803e40:	e0fff717 	ldw	r3,-36(fp)
  803e44:	1805883a 	mov	r2,r3
  803e48:	1085883a 	add	r2,r2,r2
  803e4c:	10c5883a 	add	r2,r2,r3
  803e50:	1105883a 	add	r2,r2,r4
  803e54:	10800c04 	addi	r2,r2,48
  803e58:	10800003 	ldbu	r2,0(r2)
  803e5c:	e0bff805 	stb	r2,-32(fp)
		scoreValues[1] = gameScores->highScoreBoardInits[i][1];
  803e60:	d1272e17 	ldw	r4,-25416(gp)
  803e64:	e0fff717 	ldw	r3,-36(fp)
  803e68:	1805883a 	mov	r2,r3
  803e6c:	1085883a 	add	r2,r2,r2
  803e70:	10c5883a 	add	r2,r2,r3
  803e74:	1105883a 	add	r2,r2,r4
  803e78:	10800c44 	addi	r2,r2,49
  803e7c:	10800003 	ldbu	r2,0(r2)
  803e80:	e0bff845 	stb	r2,-31(fp)
		scoreValues[2] = gameScores->highScoreBoardInits[i][2];
  803e84:	d1272e17 	ldw	r4,-25416(gp)
  803e88:	e0fff717 	ldw	r3,-36(fp)
  803e8c:	1805883a 	mov	r2,r3
  803e90:	1085883a 	add	r2,r2,r2
  803e94:	10c5883a 	add	r2,r2,r3
  803e98:	1105883a 	add	r2,r2,r4
  803e9c:	10800c84 	addi	r2,r2,50
  803ea0:	10800003 	ldbu	r2,0(r2)
  803ea4:	e0bff885 	stb	r2,-30(fp)

		scoreValues[3] = ' ';
  803ea8:	00800804 	movi	r2,32
  803eac:	e0bff8c5 	stb	r2,-29(fp)

		firstNonZeroDig = 0;
  803eb0:	e03ff415 	stw	zero,-48(fp)
		for(j = 0; j < MAXSCOREDIGITS; j++){
  803eb4:	e03ff615 	stw	zero,-40(fp)
  803eb8:	00004106 	br	803fc0 <drawScore+0x1d4>
			digit = ((int)(gameScores->highScoreBoard[i] / pow(10,(MAXSCOREDIGITS - 1 - j))) % 10);
  803ebc:	d0e72e17 	ldw	r3,-25416(gp)
  803ec0:	e0bff717 	ldw	r2,-36(fp)
  803ec4:	1085883a 	add	r2,r2,r2
  803ec8:	1085883a 	add	r2,r2,r2
  803ecc:	10c5883a 	add	r2,r2,r3
  803ed0:	10800204 	addi	r2,r2,8
  803ed4:	11000017 	ldw	r4,0(r2)
  803ed8:	08082e40 	call	8082e4 <__floatsidf>
  803edc:	1021883a 	mov	r16,r2
  803ee0:	1823883a 	mov	r17,r3
  803ee4:	00c00244 	movi	r3,9
  803ee8:	e0bff617 	ldw	r2,-40(fp)
  803eec:	1889c83a 	sub	r4,r3,r2
  803ef0:	08082e40 	call	8082e4 <__floatsidf>
  803ef4:	100f883a 	mov	r7,r2
  803ef8:	1811883a 	mov	r8,r3
  803efc:	0009883a 	mov	r4,zero
  803f00:	01500934 	movhi	r5,16420
  803f04:	380d883a 	mov	r6,r7
  803f08:	400f883a 	mov	r7,r8
  803f0c:	08053dc0 	call	8053dc <pow>
  803f10:	100f883a 	mov	r7,r2
  803f14:	1811883a 	mov	r8,r3
  803f18:	8009883a 	mov	r4,r16
  803f1c:	880b883a 	mov	r5,r17
  803f20:	380d883a 	mov	r6,r7
  803f24:	400f883a 	mov	r7,r8
  803f28:	0807de40 	call	807de4 <__divdf3>
  803f2c:	1009883a 	mov	r4,r2
  803f30:	180b883a 	mov	r5,r3
  803f34:	2005883a 	mov	r2,r4
  803f38:	2807883a 	mov	r3,r5
  803f3c:	1009883a 	mov	r4,r2
  803f40:	180b883a 	mov	r5,r3
  803f44:	08083dc0 	call	8083dc <__fixdfsi>
  803f48:	1009883a 	mov	r4,r2
  803f4c:	01400284 	movi	r5,10
  803f50:	08085c80 	call	8085c8 <__modsi3>
  803f54:	e0bff515 	stw	r2,-44(fp)
			//printf("digit: %d\n", digit);
			if(digit == 0 && firstNonZeroDig == 0){
  803f58:	e0bff517 	ldw	r2,-44(fp)
  803f5c:	1004c03a 	cmpne	r2,r2,zero
  803f60:	10000a1e 	bne	r2,zero,803f8c <drawScore+0x1a0>
  803f64:	e0bff417 	ldw	r2,-48(fp)
  803f68:	1004c03a 	cmpne	r2,r2,zero
  803f6c:	1000071e 	bne	r2,zero,803f8c <drawScore+0x1a0>
				scoreValues[4+j] = ' ';
  803f70:	e0bff617 	ldw	r2,-40(fp)
  803f74:	10c00104 	addi	r3,r2,4
  803f78:	e0bff804 	addi	r2,fp,-32
  803f7c:	10c7883a 	add	r3,r2,r3
  803f80:	00800804 	movi	r2,32
  803f84:	18800005 	stb	r2,0(r3)

		firstNonZeroDig = 0;
		for(j = 0; j < MAXSCOREDIGITS; j++){
			digit = ((int)(gameScores->highScoreBoard[i] / pow(10,(MAXSCOREDIGITS - 1 - j))) % 10);
			//printf("digit: %d\n", digit);
			if(digit == 0 && firstNonZeroDig == 0){
  803f88:	00000a06 	br	803fb4 <drawScore+0x1c8>
				scoreValues[4+j] = ' ';
			} else {
				firstNonZeroDig = 1;
  803f8c:	00800044 	movi	r2,1
  803f90:	e0bff415 	stw	r2,-48(fp)
				scoreValues[4+j] = (digit + '0');
  803f94:	e0bff617 	ldw	r2,-40(fp)
  803f98:	11000104 	addi	r4,r2,4
  803f9c:	e0bff517 	ldw	r2,-44(fp)
  803fa0:	10800c04 	addi	r2,r2,48
  803fa4:	1007883a 	mov	r3,r2
  803fa8:	e0bff804 	addi	r2,fp,-32
  803fac:	1105883a 	add	r2,r2,r4
  803fb0:	10c00005 	stb	r3,0(r2)
		scoreValues[2] = gameScores->highScoreBoardInits[i][2];

		scoreValues[3] = ' ';

		firstNonZeroDig = 0;
		for(j = 0; j < MAXSCOREDIGITS; j++){
  803fb4:	e0bff617 	ldw	r2,-40(fp)
  803fb8:	10800044 	addi	r2,r2,1
  803fbc:	e0bff615 	stw	r2,-40(fp)
  803fc0:	e0bff617 	ldw	r2,-40(fp)
  803fc4:	10800290 	cmplti	r2,r2,10
  803fc8:	103fbc1e 	bne	r2,zero,803ebc <drawScore+0xd0>
			} else {
				firstNonZeroDig = 1;
				scoreValues[4+j] = (digit + '0');
			}
		}
		scoreValues[4+MAXSCOREDIGITS] = '\0';
  803fcc:	e03ffb85 	stb	zero,-18(fp)

		alt_up_char_buffer_string(char_buffer, scoreValues , xPos, ypos + i);
  803fd0:	d1271517 	ldw	r4,-25516(gp)
  803fd4:	e1bff317 	ldw	r6,-52(fp)
  803fd8:	e0fff217 	ldw	r3,-56(fp)
  803fdc:	e0bff717 	ldw	r2,-36(fp)
  803fe0:	1885883a 	add	r2,r3,r2
  803fe4:	100f883a 	mov	r7,r2
  803fe8:	e17ff804 	addi	r5,fp,-32
  803fec:	08148880 	call	814888 <alt_up_char_buffer_string>
	int xPos = 35;
	int ypos = 25;

	alt_up_char_buffer_string(char_buffer, "**HIGH SCORES**" , xPos, ypos - 2);

	for(i = 0; i < NUMSCORES; i++) {
  803ff0:	e0bff717 	ldw	r2,-36(fp)
  803ff4:	10800044 	addi	r2,r2,1
  803ff8:	e0bff715 	stw	r2,-36(fp)
  803ffc:	e0bff717 	ldw	r2,-36(fp)
  804000:	10800290 	cmplti	r2,r2,10
  804004:	103f8d1e 	bne	r2,zero,803e3c <drawScore+0x50>
		}
		scoreValues[4+MAXSCOREDIGITS] = '\0';

		alt_up_char_buffer_string(char_buffer, scoreValues , xPos, ypos + i);
	}
}
  804008:	e037883a 	mov	sp,fp
  80400c:	dfc00317 	ldw	ra,12(sp)
  804010:	df000217 	ldw	fp,8(sp)
  804014:	dc400117 	ldw	r17,4(sp)
  804018:	dc000017 	ldw	r16,0(sp)
  80401c:	dec00404 	addi	sp,sp,16
  804020:	f800283a 	ret

00804024 <clearScore>:

void clearScore(void) {
  804024:	defffe04 	addi	sp,sp,-8
  804028:	dfc00115 	stw	ra,4(sp)
  80402c:	df000015 	stw	fp,0(sp)
  804030:	d839883a 	mov	fp,sp
	alt_up_char_buffer_clear(char_buffer);
  804034:	d1271517 	ldw	r4,-25516(gp)
  804038:	081499c0 	call	81499c <alt_up_char_buffer_clear>
}
  80403c:	e037883a 	mov	sp,fp
  804040:	dfc00117 	ldw	ra,4(sp)
  804044:	df000017 	ldw	fp,0(sp)
  804048:	dec00204 	addi	sp,sp,8
  80404c:	f800283a 	ret

00804050 <drawInGameInfo>:

//draws current lives and playerScore
void drawInGameInfo(void) {
  804050:	defff204 	addi	sp,sp,-56
  804054:	dfc00d15 	stw	ra,52(sp)
  804058:	df000c15 	stw	fp,48(sp)
  80405c:	dc400b15 	stw	r17,44(sp)
  804060:	dc000a15 	stw	r16,40(sp)
  804064:	df000a04 	addi	fp,sp,40
	char livesLeft[2] = {' ', '\0'};
  804068:	00800804 	movi	r2,32
  80406c:	e0bffc05 	stb	r2,-16(fp)
  804070:	e03ffc45 	stb	zero,-15(fp)
	livesLeft[0] = (getCurrentPlayerLives() + '0');
  804074:	0803dc80 	call	803dc8 <getCurrentPlayerLives>
  804078:	10800c04 	addi	r2,r2,48
  80407c:	e0bffc05 	stb	r2,-16(fp)
	int xPos = 1;
  804080:	00800044 	movi	r2,1
  804084:	e0bffb15 	stw	r2,-20(fp)
	int yPos = 1;
  804088:	00800044 	movi	r2,1
  80408c:	e0bffa15 	stw	r2,-24(fp)
	int i;
	int digit = 0;
  804090:	e03ff815 	stw	zero,-32(fp)
	int firstDigitFound = 0;
  804094:	e03ff715 	stw	zero,-36(fp)
	int currentScore = getCurrentPlayerScore();
  804098:	0803d780 	call	803d78 <getCurrentPlayerScore>
  80409c:	e0bff615 	stw	r2,-40(fp)
	char currentCharScore[MAXSCOREDIGITS + 1];
	currentCharScore[MAXSCOREDIGITS] = '\0'; //end of string
  8040a0:	e03fff05 	stb	zero,-4(fp)

	//populate currentCharScore;
	for(i = 0; i < MAXSCOREDIGITS; i++) {
  8040a4:	e03ff915 	stw	zero,-28(fp)
  8040a8:	00003e06 	br	8041a4 <drawInGameInfo+0x154>
		digit = ((int)(currentScore / pow(10,(MAXSCOREDIGITS - 1 - i)))%10);
  8040ac:	e13ff617 	ldw	r4,-40(fp)
  8040b0:	08082e40 	call	8082e4 <__floatsidf>
  8040b4:	1021883a 	mov	r16,r2
  8040b8:	1823883a 	mov	r17,r3
  8040bc:	00c00244 	movi	r3,9
  8040c0:	e0bff917 	ldw	r2,-28(fp)
  8040c4:	1889c83a 	sub	r4,r3,r2
  8040c8:	08082e40 	call	8082e4 <__floatsidf>
  8040cc:	100f883a 	mov	r7,r2
  8040d0:	1811883a 	mov	r8,r3
  8040d4:	0009883a 	mov	r4,zero
  8040d8:	01500934 	movhi	r5,16420
  8040dc:	380d883a 	mov	r6,r7
  8040e0:	400f883a 	mov	r7,r8
  8040e4:	08053dc0 	call	8053dc <pow>
  8040e8:	100f883a 	mov	r7,r2
  8040ec:	1811883a 	mov	r8,r3
  8040f0:	8009883a 	mov	r4,r16
  8040f4:	880b883a 	mov	r5,r17
  8040f8:	380d883a 	mov	r6,r7
  8040fc:	400f883a 	mov	r7,r8
  804100:	0807de40 	call	807de4 <__divdf3>
  804104:	1009883a 	mov	r4,r2
  804108:	180b883a 	mov	r5,r3
  80410c:	2005883a 	mov	r2,r4
  804110:	2807883a 	mov	r3,r5
  804114:	1009883a 	mov	r4,r2
  804118:	180b883a 	mov	r5,r3
  80411c:	08083dc0 	call	8083dc <__fixdfsi>
  804120:	1009883a 	mov	r4,r2
  804124:	01400284 	movi	r5,10
  804128:	08085c80 	call	8085c8 <__modsi3>
  80412c:	e0bff815 	stw	r2,-32(fp)
		currentCharScore[i] = '0';
  804130:	e0fff917 	ldw	r3,-28(fp)
  804134:	e0bffc84 	addi	r2,fp,-14
  804138:	10c7883a 	add	r3,r2,r3
  80413c:	00800c04 	movi	r2,48
  804140:	18800005 	stb	r2,0(r3)
		if(digit != 0 && firstDigitFound == 0) {
  804144:	e0bff817 	ldw	r2,-32(fp)
  804148:	1005003a 	cmpeq	r2,r2,zero
  80414c:	1000051e 	bne	r2,zero,804164 <drawInGameInfo+0x114>
  804150:	e0bff717 	ldw	r2,-36(fp)
  804154:	1004c03a 	cmpne	r2,r2,zero
  804158:	1000021e 	bne	r2,zero,804164 <drawInGameInfo+0x114>
			firstDigitFound = 1;
  80415c:	00800044 	movi	r2,1
  804160:	e0bff715 	stw	r2,-36(fp)
		}
		if(firstDigitFound == 1 || i == (MAXSCOREDIGITS - 1)) {
  804164:	e0bff717 	ldw	r2,-36(fp)
  804168:	10800060 	cmpeqi	r2,r2,1
  80416c:	1000031e 	bne	r2,zero,80417c <drawInGameInfo+0x12c>
  804170:	e0bff917 	ldw	r2,-28(fp)
  804174:	10800258 	cmpnei	r2,r2,9
